---
triple:          'arm64-apple-darwin'
binary-path:     '/Users/havardvestbo/Documents/Studie/H2023/c++/cpp-assignments/assignment6/chess'
relocations:
  - { offsetInCU: 0x5C, offset: 0x5C, size: 0x8, addend: 0x0, symName: __ZNSt3__1L19piecewise_constructE, symObjAddr: 0x147D6, symBinAddr: 0x100016B24, symSize: 0x0 }
  - { offsetInCU: 0x7893, offset: 0x7893, size: 0x8, addend: 0x0, symName: __ZNSt3__110__function10__not_nullB7v160006IZN15ChessBoardPrintC1ER10ChessBoardEUlRKNS3_5PieceERKNS_12basic_stringIcNS_11char_traitsIcEENS_9allocatorIcEEEESF_E_EEbRKT_, symObjAddr: 0x6848, symBinAddr: 0x100008D90, symSize: 0x18 }
  - { offsetInCU: 0x78C4, offset: 0x78C4, size: 0x8, addend: 0x0, symName: __ZNSt3__110__function10__not_nullB7v160006IZN15ChessBoardPrintC1ER10ChessBoardEUlRKNS3_5PieceERKNS_12basic_stringIcNS_11char_traitsIcEENS_9allocatorIcEEEEE_EEbRKT_, symObjAddr: 0x922C, symBinAddr: 0x10000B774, symSize: 0x18 }
  - { offsetInCU: 0x78F5, offset: 0x78F5, size: 0x8, addend: 0x0, symName: __ZNSt3__110__function10__not_nullB7v160006IZN15ChessBoardPrintC1ER10ChessBoardEUlNS3_5ColorEE_EEbRKT_, symObjAddr: 0xAF28, symBinAddr: 0x10000D470, symSize: 0x18 }
  - { offsetInCU: 0x7926, offset: 0x7926, size: 0x8, addend: 0x0, symName: __ZNSt3__110__function10__not_nullB7v160006IZN15ChessBoardPrintC1ER10ChessBoardEUlRKNS3_5PieceERKNS_12basic_stringIcNS_11char_traitsIcEENS_9allocatorIcEEEESF_E0_EEbRKT_, symObjAddr: 0xCBA4, symBinAddr: 0x10000F0EC, symSize: 0x18 }
  - { offsetInCU: 0x7957, offset: 0x7957, size: 0x8, addend: 0x0, symName: __ZNSt3__110__function10__not_nullB7v160006IZN15ChessBoardPrintC1ER10ChessBoardEUlRKNS_12basic_stringIcNS_11char_traitsIcEENS_9allocatorIcEEEEE_EEbRKT_, symObjAddr: 0xE558, symBinAddr: 0x100010AA0, symSize: 0x18 }
  - { offsetInCU: 0x7988, offset: 0x7988, size: 0x8, addend: 0x0, symName: __ZNSt3__110__function10__not_nullB7v160006IZN15ChessBoardPrintC1ER10ChessBoardEUlRKNS_6vectorINS5_INS_10unique_ptrINS3_5PieceENS_14default_deleteIS7_EEEENS_9allocatorISA_EEEENSB_ISD_EEEEE_EEbRKT_, symObjAddr: 0x101C0, symBinAddr: 0x100012708, symSize: 0x18 }
  - { offsetInCU: 0xA756, offset: 0xA756, size: 0x8, addend: 0x0, symName: __ZNSt3__124__put_character_sequenceB7v160006IcNS_11char_traitsIcEEEERNS_13basic_ostreamIT_T0_EES7_PKS4_m, symObjAddr: 0x8064, symBinAddr: 0x10000A5AC, symSize: 0x1EC }
  - { offsetInCU: 0x1189F, offset: 0x1189F, size: 0x8, addend: 0x0, symName: __ZNSt3__111make_uniqueB7v160006IN10ChessBoard4KingEJNS1_5ColorEEEENS_11__unique_ifIT_E15__unique_singleEDpOT0_, symObjAddr: 0x8EC, symBinAddr: 0x100002E34, symSize: 0x70 }
  - { offsetInCU: 0x118E1, offset: 0x118E1, size: 0x8, addend: 0x0, symName: __ZNSt3__111make_uniqueB7v160006IN10ChessBoard6KnightEJNS1_5ColorEEEENS_11__unique_ifIT_E15__unique_singleEDpOT0_, symObjAddr: 0xA38, symBinAddr: 0x100002F80, symSize: 0x70 }
  - { offsetInCU: 0x11923, offset: 0x11923, size: 0x8, addend: 0x0, symName: __ZNSt3__1lsB7v160006INS_11char_traitsIcEEEERNS_13basic_ostreamIcT_EES6_PKc, symObjAddr: 0xB34, symBinAddr: 0x10000307C, symSize: 0x48 }
  - { offsetInCU: 0x11969, offset: 0x11969, size: 0x8, addend: 0x0, symName: __ZNSt3__14endlB7v160006IcNS_11char_traitsIcEEEERNS_13basic_ostreamIT_T0_EES7_, symObjAddr: 0xBA8, symBinAddr: 0x1000030F0, symSize: 0x58 }
  - { offsetInCU: 0x119A9, offset: 0x119A9, size: 0x8, addend: 0x0, symName: __ZNSt3__1neB7v160006IPNS_6vectorINS_10unique_ptrIN10ChessBoard5PieceENS_14default_deleteIS4_EEEENS_9allocatorIS7_EEEEEEbRKNS_11__wrap_iterIT_EESG_, symObjAddr: 0x144C, symBinAddr: 0x100003994, symSize: 0x34 }
  - { offsetInCU: 0x119EC, offset: 0x119EC, size: 0x8, addend: 0x0, symName: __ZNSt3__119__debug_db_insert_cB7v160006INS_6vectorINS1_INS_10unique_ptrIN10ChessBoard5PieceENS_14default_deleteIS4_EEEENS_9allocatorIS7_EEEENS8_ISA_EEEEEEvPT_, symObjAddr: 0x16F4, symBinAddr: 0x100003C3C, symSize: 0x10 }
  - { offsetInCU: 0x11A1D, offset: 0x11A1D, size: 0x8, addend: 0x0, symName: __ZNSt3__112__to_addressB7v160006INS_6vectorINS_10unique_ptrIN10ChessBoard5PieceENS_14default_deleteIS4_EEEENS_9allocatorIS7_EEEEEEPT_SC_, symObjAddr: 0x2034, symBinAddr: 0x10000457C, symSize: 0x14 }
  - { offsetInCU: 0x11A52, offset: 0x11A52, size: 0x8, addend: 0x0, symName: __ZNSt3__119__debug_db_insert_cB7v160006INS_6vectorINS_10unique_ptrIN10ChessBoard5PieceENS_14default_deleteIS4_EEEENS_9allocatorIS7_EEEEEEvPT_, symObjAddr: 0x21A8, symBinAddr: 0x1000046F0, symSize: 0x10 }
  - { offsetInCU: 0x11A83, offset: 0x11A83, size: 0x8, addend: 0x0, symName: __ZNSt3__13maxB7v160006ImEERKT_S3_S3_, symObjAddr: 0x2394, symBinAddr: 0x1000048DC, symSize: 0x2C }
  - { offsetInCU: 0x11AC6, offset: 0x11AC6, size: 0x8, addend: 0x0, symName: __ZNSt3__13minB7v160006ImEERKT_S3_S3_, symObjAddr: 0x23C0, symBinAddr: 0x100004908, symSize: 0x2C }
  - { offsetInCU: 0x11D0A, offset: 0x11D0A, size: 0x8, addend: 0x0, symName: __ZNSt3__13minB7v160006ImNS_6__lessImmEEEERKT_S5_S5_T0_, symObjAddr: 0x244C, symBinAddr: 0x100004994, symSize: 0x54 }
  - { offsetInCU: 0x11D9F, offset: 0x11D9F, size: 0x8, addend: 0x0, symName: __ZNSt3__120__throw_length_errorB7v160006EPKc, symObjAddr: 0x252C, symBinAddr: 0x100004A74, symSize: 0x64 }
  - { offsetInCU: 0x11DC7, offset: 0x11DC7, size: 0x8, addend: 0x0, symName: __ZNSt3__13maxB7v160006ImNS_6__lessImmEEEERKT_S5_S5_T0_, symObjAddr: 0x2670, symBinAddr: 0x100004BB8, symSize: 0x54 }
  - { offsetInCU: 0x11E21, offset: 0x11E21, size: 0x8, addend: 0x0, symName: __ZNSt3__119__allocate_at_leastB7v160006INS_9allocatorINS_6vectorINS_10unique_ptrIN10ChessBoard5PieceENS_14default_deleteIS5_EEEENS1_IS8_EEEEEEEENS_19__allocation_resultINS_16allocator_traitsIT_E7pointerEEERSE_m, symObjAddr: 0x27E0, symBinAddr: 0x100004D28, symSize: 0x40 }
  - { offsetInCU: 0x11E64, offset: 0x11E64, size: 0x8, addend: 0x0, symName: __ZNSt3__117__libcpp_allocateB7v160006Emm, symObjAddr: 0x2968, symBinAddr: 0x100004EB0, symSize: 0x28 }
  - { offsetInCU: 0x11EA1, offset: 0x11EA1, size: 0x8, addend: 0x0, symName: __ZNSt3__121__libcpp_operator_newB7v160006IJmEEEPvDpT_, symObjAddr: 0x2990, symBinAddr: 0x100004ED8, symSize: 0x24 }
  - { offsetInCU: 0x11EDA, offset: 0x11EDA, size: 0x8, addend: 0x0, symName: __ZNSt3__142__uninitialized_allocator_move_if_noexceptB7v160006INS_9allocatorINS_6vectorINS_10unique_ptrIN10ChessBoard5PieceENS_14default_deleteIS5_EEEENS1_IS8_EEEEEENS_16reverse_iteratorIPSA_EESE_SE_EET2_RT_T0_T1_SF_, symObjAddr: 0x2BC0, symBinAddr: 0x100005108, symSize: 0x12C }
  - { offsetInCU: 0x11F7A, offset: 0x11F7A, size: 0x8, addend: 0x0, symName: __ZNSt3__14swapB7v160006IPNS_6vectorINS_10unique_ptrIN10ChessBoard5PieceENS_14default_deleteIS4_EEEENS_9allocatorIS7_EEEEEENS_9enable_ifIXaasr21is_move_constructibleIT_EE5valuesr18is_move_assignableISD_EE5valueEvE4typeERSD_SG_, symObjAddr: 0x2D38, symBinAddr: 0x100005280, symSize: 0x3C }
  - { offsetInCU: 0x11FCB, offset: 0x11FCB, size: 0x8, addend: 0x0, symName: __ZNSt3__125__debug_db_invalidate_allB7v160006INS_6vectorINS1_INS_10unique_ptrIN10ChessBoard5PieceENS_14default_deleteIS4_EEEENS_9allocatorIS7_EEEENS8_ISA_EEEEEEvPT_, symObjAddr: 0x2E3C, symBinAddr: 0x100005384, symSize: 0x10 }
  - { offsetInCU: 0x11FFC, offset: 0x11FFC, size: 0x8, addend: 0x0, symName: __ZNSt3__122__make_exception_guardB7v160006INS_29_AllocatorDestroyRangeReverseINS_9allocatorINS_6vectorINS_10unique_ptrIN10ChessBoard5PieceENS_14default_deleteIS6_EEEENS2_IS9_EEEEEENS_16reverse_iteratorIPSB_EEEEEENS_28__exception_guard_exceptionsIT_EESI_, symObjAddr: 0x2E94, symBinAddr: 0x1000053DC, symSize: 0x4C }
  - { offsetInCU: 0x12032, offset: 0x12032, size: 0x8, addend: 0x0, symName: __ZNSt3__1neB7v160006IPNS_6vectorINS_10unique_ptrIN10ChessBoard5PieceENS_14default_deleteIS4_EEEENS_9allocatorIS7_EEEESB_EEbRKNS_16reverse_iteratorIT_EERKNSC_IT0_EE, symObjAddr: 0x2F24, symBinAddr: 0x10000546C, symSize: 0x48 }
  - { offsetInCU: 0x1207E, offset: 0x1207E, size: 0x8, addend: 0x0, symName: __ZNSt3__112__to_addressB7v160006INS_16reverse_iteratorIPNS_6vectorINS_10unique_ptrIN10ChessBoard5PieceENS_14default_deleteIS5_EEEENS_9allocatorIS8_EEEEEEvEENS_5decayIDTclsr19__to_address_helperIT_EE6__callclsr3stdE7declvalIRKSF_EEEEE4typeESH_, symObjAddr: 0x2FA0, symBinAddr: 0x1000054E8, symSize: 0x24 }
  - { offsetInCU: 0x120B4, offset: 0x120B4, size: 0x8, addend: 0x0, symName: __ZNSt3__115__debug_db_swapB7v160006INS_6vectorINS_10unique_ptrIN10ChessBoard5PieceENS_14default_deleteIS4_EEEENS_9allocatorIS7_EEEEEEvPT_SC_, symObjAddr: 0x3294, symBinAddr: 0x1000057DC, symSize: 0x14 }
  - { offsetInCU: 0x1211C, offset: 0x1211C, size: 0x8, addend: 0x0, symName: __ZNSt3__119__allocator_destroyB7v160006INS_9allocatorINS_6vectorINS_10unique_ptrIN10ChessBoard5PieceENS_14default_deleteIS5_EEEENS1_IS8_EEEEEENS_16reverse_iteratorINSC_IPSA_EEEESF_EEvRT_T0_T1_, symObjAddr: 0x34FC, symBinAddr: 0x100005A44, symSize: 0x70 }
  - { offsetInCU: 0x12181, offset: 0x12181, size: 0x8, addend: 0x0, symName: __ZNSt3__1neB7v160006INS_16reverse_iteratorIPNS_6vectorINS_10unique_ptrIN10ChessBoard5PieceENS_14default_deleteIS5_EEEENS_9allocatorIS8_EEEEEESD_EEbRKNS1_IT_EERKNS1_IT0_EE, symObjAddr: 0x35A8, symBinAddr: 0x100005AF0, symSize: 0x60 }
  - { offsetInCU: 0x121CD, offset: 0x121CD, size: 0x8, addend: 0x0, symName: __ZNSt3__112__to_addressB7v160006INS_16reverse_iteratorINS1_IPNS_6vectorINS_10unique_ptrIN10ChessBoard5PieceENS_14default_deleteIS5_EEEENS_9allocatorIS8_EEEEEEEEvEENS_5decayIDTclsr19__to_address_helperIT_EE6__callclsr3stdE7declvalIRKSG_EEEEE4typeESI_, symObjAddr: 0x3634, symBinAddr: 0x100005B7C, symSize: 0x24 }
  - { offsetInCU: 0x12203, offset: 0x12203, size: 0x8, addend: 0x0, symName: __ZNSt3__118__debug_db_erase_cB7v160006INS_6vectorINS_10unique_ptrIN10ChessBoard5PieceENS_14default_deleteIS4_EEEENS_9allocatorIS7_EEEEEEvPT_, symObjAddr: 0x38EC, symBinAddr: 0x100005E34, symSize: 0x10 }
  - { offsetInCU: 0x12234, offset: 0x12234, size: 0x8, addend: 0x0, symName: __ZNSt3__112__to_addressB7v160006INS_10unique_ptrIN10ChessBoard5PieceENS_14default_deleteIS3_EEEEEEPT_S8_, symObjAddr: 0x3A08, symBinAddr: 0x100005F50, symSize: 0x14 }
  - { offsetInCU: 0x12269, offset: 0x12269, size: 0x8, addend: 0x0, symName: __ZNSt3__119__libcpp_deallocateB7v160006EPvmm, symObjAddr: 0x3CCC, symBinAddr: 0x100006214, symSize: 0x30 }
  - { offsetInCU: 0x122B1, offset: 0x122B1, size: 0x8, addend: 0x0, symName: __ZNSt3__127__do_deallocate_handle_sizeB7v160006IJEEEvPvmDpT_, symObjAddr: 0x3CFC, symBinAddr: 0x100006244, symSize: 0x28 }
  - { offsetInCU: 0x122EF, offset: 0x122EF, size: 0x8, addend: 0x0, symName: __ZNSt3__124__libcpp_operator_deleteB7v160006IJPvEEEvDpT_, symObjAddr: 0x3D24, symBinAddr: 0x10000626C, symSize: 0x24 }
  - { offsetInCU: 0x1234D, offset: 0x1234D, size: 0x8, addend: 0x0, symName: __ZNSt3__1eqB7v160006IPNS_6vectorINS_10unique_ptrIN10ChessBoard5PieceENS_14default_deleteIS4_EEEENS_9allocatorIS7_EEEEEEbRKNS_11__wrap_iterIT_EESG_, symObjAddr: 0x4314, symBinAddr: 0x10000685C, symSize: 0x48 }
  - { offsetInCU: 0x12390, offset: 0x12390, size: 0x8, addend: 0x0, symName: __ZNSt3__119__allocate_at_leastB7v160006INS_9allocatorINS_10unique_ptrIN10ChessBoard5PieceENS_14default_deleteIS4_EEEEEEEENS_19__allocation_resultINS_16allocator_traitsIT_E7pointerEEERSB_m, symObjAddr: 0x4CE4, symBinAddr: 0x10000722C, symSize: 0x40 }
  - { offsetInCU: 0x123D3, offset: 0x123D3, size: 0x8, addend: 0x0, symName: __ZNSt3__142__uninitialized_allocator_move_if_noexceptB7v160006INS_9allocatorINS_10unique_ptrIN10ChessBoard5PieceENS_14default_deleteIS4_EEEEEENS_16reverse_iteratorIPS7_EESB_SB_EET2_RT_T0_T1_SC_, symObjAddr: 0x4F64, symBinAddr: 0x1000074AC, symSize: 0x12C }
  - { offsetInCU: 0x12473, offset: 0x12473, size: 0x8, addend: 0x0, symName: __ZNSt3__14swapB7v160006IPNS_10unique_ptrIN10ChessBoard5PieceENS_14default_deleteIS3_EEEEEENS_9enable_ifIXaasr21is_move_constructibleIT_EE5valuesr18is_move_assignableIS9_EE5valueEvE4typeERS9_SC_, symObjAddr: 0x50DC, symBinAddr: 0x100007624, symSize: 0x3C }
  - { offsetInCU: 0x124C4, offset: 0x124C4, size: 0x8, addend: 0x0, symName: __ZNSt3__125__debug_db_invalidate_allB7v160006INS_6vectorINS_10unique_ptrIN10ChessBoard5PieceENS_14default_deleteIS4_EEEENS_9allocatorIS7_EEEEEEvPT_, symObjAddr: 0x51C4, symBinAddr: 0x10000770C, symSize: 0x10 }
  - { offsetInCU: 0x124F5, offset: 0x124F5, size: 0x8, addend: 0x0, symName: __ZNSt3__122__make_exception_guardB7v160006INS_29_AllocatorDestroyRangeReverseINS_9allocatorINS_10unique_ptrIN10ChessBoard5PieceENS_14default_deleteIS5_EEEEEENS_16reverse_iteratorIPS8_EEEEEENS_28__exception_guard_exceptionsIT_EESF_, symObjAddr: 0x51D4, symBinAddr: 0x10000771C, symSize: 0x4C }
  - { offsetInCU: 0x1252B, offset: 0x1252B, size: 0x8, addend: 0x0, symName: __ZNSt3__1neB7v160006IPNS_10unique_ptrIN10ChessBoard5PieceENS_14default_deleteIS3_EEEES7_EEbRKNS_16reverse_iteratorIT_EERKNS8_IT0_EE, symObjAddr: 0x5264, symBinAddr: 0x1000077AC, symSize: 0x48 }
  - { offsetInCU: 0x12577, offset: 0x12577, size: 0x8, addend: 0x0, symName: __ZNSt3__112__to_addressB7v160006INS_16reverse_iteratorIPNS_10unique_ptrIN10ChessBoard5PieceENS_14default_deleteIS4_EEEEEEvEENS_5decayIDTclsr19__to_address_helperIT_EE6__callclsr3stdE7declvalIRKSB_EEEEE4typeESD_, symObjAddr: 0x52E0, symBinAddr: 0x100007828, symSize: 0x24 }
  - { offsetInCU: 0x125D6, offset: 0x125D6, size: 0x8, addend: 0x0, symName: __ZNSt3__119__allocator_destroyB7v160006INS_9allocatorINS_10unique_ptrIN10ChessBoard5PieceENS_14default_deleteIS4_EEEEEENS_16reverse_iteratorINS9_IPS7_EEEESC_EEvRT_T0_T1_, symObjAddr: 0x5778, symBinAddr: 0x100007CC0, symSize: 0x70 }
  - { offsetInCU: 0x1263B, offset: 0x1263B, size: 0x8, addend: 0x0, symName: __ZNSt3__1neB7v160006INS_16reverse_iteratorIPNS_10unique_ptrIN10ChessBoard5PieceENS_14default_deleteIS4_EEEEEES9_EEbRKNS1_IT_EERKNS1_IT0_EE, symObjAddr: 0x5824, symBinAddr: 0x100007D6C, symSize: 0x60 }
  - { offsetInCU: 0x12687, offset: 0x12687, size: 0x8, addend: 0x0, symName: __ZNSt3__112__to_addressB7v160006INS_16reverse_iteratorINS1_IPNS_10unique_ptrIN10ChessBoard5PieceENS_14default_deleteIS4_EEEEEEEEvEENS_5decayIDTclsr19__to_address_helperIT_EE6__callclsr3stdE7declvalIRKSC_EEEEE4typeESE_, symObjAddr: 0x5884, symBinAddr: 0x100007DCC, symSize: 0x24 }
  - { offsetInCU: 0x126E6, offset: 0x126E6, size: 0x8, addend: 0x0, symName: __ZNSt3__118__debug_db_erase_cB7v160006INS_6vectorINS1_INS_10unique_ptrIN10ChessBoard5PieceENS_14default_deleteIS4_EEEENS_9allocatorIS7_EEEENS8_ISA_EEEEEEvPT_, symObjAddr: 0x6270, symBinAddr: 0x1000087B8, symSize: 0x10 }
  - { offsetInCU: 0x1287A, offset: 0x1287A, size: 0x8, addend: 0x0, symName: __ZNSt3__116forward_as_tupleB7v160006IJZN15ChessBoardPrintC1ER10ChessBoardEUlRKNS2_5PieceERKNS_12basic_stringIcNS_11char_traitsIcEENS_9allocatorIcEEEESE_E_EEENS_5tupleIJDpOT_EEESJ_, symObjAddr: 0x6DD8, symBinAddr: 0x100009320, symSize: 0x2C }
  - { offsetInCU: 0x128B3, offset: 0x128B3, size: 0x8, addend: 0x0, symName: __ZNSt3__116forward_as_tupleB7v160006IJNS_9allocatorIZN15ChessBoardPrintC1ER10ChessBoardEUlRKNS3_5PieceERKNS_12basic_stringIcNS_11char_traitsIcEENS1_IcEEEESE_E_EEEEENS_5tupleIJDpOT_EEESK_, symObjAddr: 0x6E04, symBinAddr: 0x10000934C, symSize: 0x2C }
  - { offsetInCU: 0x12930, offset: 0x12930, size: 0x8, addend: 0x0, symName: __ZNSt3__13getB7v160006ILm0EJOZN15ChessBoardPrintC1ER10ChessBoardEUlRKNS2_5PieceERKNS_12basic_stringIcNS_11char_traitsIcEENS_9allocatorIcEEEESE_E_EEERNS_13tuple_elementIXT_ENS_5tupleIJDpT0_EEEE4typeERSL_, symObjAddr: 0x7110, symBinAddr: 0x100009658, symSize: 0x24 }
  - { offsetInCU: 0x12973, offset: 0x12973, size: 0x8, addend: 0x0, symName: __ZNSt3__13getB7v160006ILm0EJONS_9allocatorIZN15ChessBoardPrintC1ER10ChessBoardEUlRKNS3_5PieceERKNS_12basic_stringIcNS_11char_traitsIcEENS1_IcEEEESE_E_EEEEERNS_13tuple_elementIXT_ENS_5tupleIJDpT0_EEEE4typeERSM_, symObjAddr: 0x714C, symBinAddr: 0x100009694, symSize: 0x24 }
  - { offsetInCU: 0x12E9A, offset: 0x12E9A, size: 0x8, addend: 0x0, symName: __ZNSt3__116forward_as_tupleB7v160006IJRKZN15ChessBoardPrintC1ER10ChessBoardEUlRKNS2_5PieceERKNS_12basic_stringIcNS_11char_traitsIcEENS_9allocatorIcEEEESE_E_EEENS_5tupleIJDpOT_EEESL_, symObjAddr: 0x76E0, symBinAddr: 0x100009C28, symSize: 0x2C }
  - { offsetInCU: 0x12EE8, offset: 0x12EE8, size: 0x8, addend: 0x0, symName: __ZNSt3__13getB7v160006ILm0EJRKZN15ChessBoardPrintC1ER10ChessBoardEUlRKNS2_5PieceERKNS_12basic_stringIcNS_11char_traitsIcEENS_9allocatorIcEEEESE_E_EEERNS_13tuple_elementIXT_ENS_5tupleIJDpT0_EEEE4typeERSM_, symObjAddr: 0x78C4, symBinAddr: 0x100009E0C, symSize: 0x24 }
  - { offsetInCU: 0x12F2B, offset: 0x12F2B, size: 0x8, addend: 0x0, symName: __ZNSt3__116forward_as_tupleB7v160006IJRKNS_9allocatorIZN15ChessBoardPrintC1ER10ChessBoardEUlRKNS3_5PieceERKNS_12basic_stringIcNS_11char_traitsIcEENS1_IcEEEESE_E_EEEEENS_5tupleIJDpOT_EEESM_, symObjAddr: 0x7C20, symBinAddr: 0x10000A168, symSize: 0x2C }
  - { offsetInCU: 0x12F79, offset: 0x12F79, size: 0x8, addend: 0x0, symName: __ZNSt3__13getB7v160006ILm0EJRKNS_9allocatorIZN15ChessBoardPrintC1ER10ChessBoardEUlRKNS3_5PieceERKNS_12basic_stringIcNS_11char_traitsIcEENS1_IcEEEESE_E_EEEEERNS_13tuple_elementIXT_ENS_5tupleIJDpT0_EEEE4typeERSN_, symObjAddr: 0x7E04, symBinAddr: 0x10000A34C, symSize: 0x24 }
  - { offsetInCU: 0x130EE, offset: 0x130EE, size: 0x8, addend: 0x0, symName: __ZNSt3__18__invokeB7v160006IRZN15ChessBoardPrintC1ER10ChessBoardEUlRKNS2_5PieceERKNS_12basic_stringIcNS_11char_traitsIcEENS_9allocatorIcEEEESE_E_JS6_SE_SE_EEEDTclclsr3stdE7declvalIT_EEspclsr3stdE7declvalIT0_EEEEOSH_DpOSI_, symObjAddr: 0x7EF0, symBinAddr: 0x10000A438, symSize: 0x3C }
  - { offsetInCU: 0x13163, offset: 0x13163, size: 0x8, addend: 0x0, symName: __ZNSt3__1lsB7v160006IcNS_11char_traitsIcEENS_9allocatorIcEEEERNS_13basic_ostreamIT_T0_EES9_RKNS_12basic_stringIS6_S7_T1_EE, symObjAddr: 0x8018, symBinAddr: 0x10000A560, symSize: 0x4C }
  - { offsetInCU: 0x131BB, offset: 0x131BB, size: 0x8, addend: 0x0, symName: __ZNSt3__116__pad_and_outputB7v160006IcNS_11char_traitsIcEEEENS_19ostreambuf_iteratorIT_T0_EES6_PKS4_S8_S8_RNS_8ios_baseES4_, symObjAddr: 0x82E8, symBinAddr: 0x10000A830, symSize: 0x240 }
  - { offsetInCU: 0x1328A, offset: 0x1328A, size: 0x8, addend: 0x0, symName: __ZNSt3__119__debug_db_insert_cB7v160006INS_12basic_stringIcNS_11char_traitsIcEENS_9allocatorIcEEEEEEvPT_, symObjAddr: 0x8774, symBinAddr: 0x10000ACBC, symSize: 0x10 }
  - { offsetInCU: 0x132BB, offset: 0x132BB, size: 0x8, addend: 0x0, symName: __ZNSt3__19use_facetB7v160006INS_5ctypeIcEEEERKT_RKNS_6localeE, symObjAddr: 0x8984, symBinAddr: 0x10000AECC, symSize: 0x2C }
  - { offsetInCU: 0x1378A, offset: 0x1378A, size: 0x8, addend: 0x0, symName: __ZNSt3__112__to_addressB7v160006IKcEEPT_S3_, symObjAddr: 0x8A1C, symBinAddr: 0x10000AF64, symSize: 0x14 }
  - { offsetInCU: 0x137F2, offset: 0x137F2, size: 0x8, addend: 0x0, symName: __ZNSt3__14swapB7v160006IPNS_10__function6__baseIFvRKN10ChessBoard5PieceERKNS_12basic_stringIcNS_11char_traitsIcEENS_9allocatorIcEEEESE_EEEEENS_9enable_ifIXaasr21is_move_constructibleIT_EE5valuesr18is_move_assignableISJ_EE5valueEvE4typeERSJ_SM_, symObjAddr: 0x8FDC, symBinAddr: 0x10000B524, symSize: 0x3C }
  - { offsetInCU: 0x139A6, offset: 0x139A6, size: 0x8, addend: 0x0, symName: __ZNSt3__116forward_as_tupleB7v160006IJZN15ChessBoardPrintC1ER10ChessBoardEUlRKNS2_5PieceERKNS_12basic_stringIcNS_11char_traitsIcEENS_9allocatorIcEEEEE_EEENS_5tupleIJDpOT_EEESJ_, symObjAddr: 0x97B4, symBinAddr: 0x10000BCFC, symSize: 0x2C }
  - { offsetInCU: 0x139DF, offset: 0x139DF, size: 0x8, addend: 0x0, symName: __ZNSt3__116forward_as_tupleB7v160006IJNS_9allocatorIZN15ChessBoardPrintC1ER10ChessBoardEUlRKNS3_5PieceERKNS_12basic_stringIcNS_11char_traitsIcEENS1_IcEEEEE_EEEEENS_5tupleIJDpOT_EEESK_, symObjAddr: 0x97E0, symBinAddr: 0x10000BD28, symSize: 0x2C }
  - { offsetInCU: 0x13A42, offset: 0x13A42, size: 0x8, addend: 0x0, symName: __ZNSt3__13getB7v160006ILm0EJOZN15ChessBoardPrintC1ER10ChessBoardEUlRKNS2_5PieceERKNS_12basic_stringIcNS_11char_traitsIcEENS_9allocatorIcEEEEE_EEERNS_13tuple_elementIXT_ENS_5tupleIJDpT0_EEEE4typeERSL_, symObjAddr: 0x9AEC, symBinAddr: 0x10000C034, symSize: 0x24 }
  - { offsetInCU: 0x13A85, offset: 0x13A85, size: 0x8, addend: 0x0, symName: __ZNSt3__13getB7v160006ILm0EJONS_9allocatorIZN15ChessBoardPrintC1ER10ChessBoardEUlRKNS3_5PieceERKNS_12basic_stringIcNS_11char_traitsIcEENS1_IcEEEEE_EEEEERNS_13tuple_elementIXT_ENS_5tupleIJDpT0_EEEE4typeERSM_, symObjAddr: 0x9B28, symBinAddr: 0x10000C070, symSize: 0x24 }
  - { offsetInCU: 0x13FAC, offset: 0x13FAC, size: 0x8, addend: 0x0, symName: __ZNSt3__116forward_as_tupleB7v160006IJRKZN15ChessBoardPrintC1ER10ChessBoardEUlRKNS2_5PieceERKNS_12basic_stringIcNS_11char_traitsIcEENS_9allocatorIcEEEEE_EEENS_5tupleIJDpOT_EEESL_, symObjAddr: 0xA0BC, symBinAddr: 0x10000C604, symSize: 0x2C }
  - { offsetInCU: 0x13FFA, offset: 0x13FFA, size: 0x8, addend: 0x0, symName: __ZNSt3__13getB7v160006ILm0EJRKZN15ChessBoardPrintC1ER10ChessBoardEUlRKNS2_5PieceERKNS_12basic_stringIcNS_11char_traitsIcEENS_9allocatorIcEEEEE_EEERNS_13tuple_elementIXT_ENS_5tupleIJDpT0_EEEE4typeERSM_, symObjAddr: 0xA2A0, symBinAddr: 0x10000C7E8, symSize: 0x24 }
  - { offsetInCU: 0x1403D, offset: 0x1403D, size: 0x8, addend: 0x0, symName: __ZNSt3__116forward_as_tupleB7v160006IJRKNS_9allocatorIZN15ChessBoardPrintC1ER10ChessBoardEUlRKNS3_5PieceERKNS_12basic_stringIcNS_11char_traitsIcEENS1_IcEEEEE_EEEEENS_5tupleIJDpOT_EEESM_, symObjAddr: 0xA5FC, symBinAddr: 0x10000CB44, symSize: 0x2C }
  - { offsetInCU: 0x1408B, offset: 0x1408B, size: 0x8, addend: 0x0, symName: __ZNSt3__13getB7v160006ILm0EJRKNS_9allocatorIZN15ChessBoardPrintC1ER10ChessBoardEUlRKNS3_5PieceERKNS_12basic_stringIcNS_11char_traitsIcEENS1_IcEEEEE_EEEEERNS_13tuple_elementIXT_ENS_5tupleIJDpT0_EEEE4typeERSN_, symObjAddr: 0xA7E0, symBinAddr: 0x10000CD28, symSize: 0x24 }
  - { offsetInCU: 0x140CE, offset: 0x140CE, size: 0x8, addend: 0x0, symName: __ZNSt3__18__invokeB7v160006IRZN15ChessBoardPrintC1ER10ChessBoardEUlRKNS2_5PieceERKNS_12basic_stringIcNS_11char_traitsIcEENS_9allocatorIcEEEEE_JS6_SE_EEEDTclclsr3stdE7declvalIT_EEspclsr3stdE7declvalIT0_EEEEOSH_DpOSI_, symObjAddr: 0xA8BC, symBinAddr: 0x10000CE04, symSize: 0x34 }
  - { offsetInCU: 0x1412F, offset: 0x1412F, size: 0x8, addend: 0x0, symName: __ZNSt3__14swapB7v160006IPNS_10__function6__baseIFvRKN10ChessBoard5PieceERKNS_12basic_stringIcNS_11char_traitsIcEENS_9allocatorIcEEEEEEEEENS_9enable_ifIXaasr21is_move_constructibleIT_EE5valuesr18is_move_assignableISJ_EE5valueEvE4typeERSJ_SM_, symObjAddr: 0xACD8, symBinAddr: 0x10000D220, symSize: 0x3C }
  - { offsetInCU: 0x142E3, offset: 0x142E3, size: 0x8, addend: 0x0, symName: __ZNSt3__116forward_as_tupleB7v160006IJZN15ChessBoardPrintC1ER10ChessBoardEUlNS2_5ColorEE_EEENS_5tupleIJDpOT_EEES9_, symObjAddr: 0xB4A8, symBinAddr: 0x10000D9F0, symSize: 0x2C }
  - { offsetInCU: 0x1431C, offset: 0x1431C, size: 0x8, addend: 0x0, symName: __ZNSt3__116forward_as_tupleB7v160006IJNS_9allocatorIZN15ChessBoardPrintC1ER10ChessBoardEUlNS3_5ColorEE_EEEEENS_5tupleIJDpOT_EEESB_, symObjAddr: 0xB4D4, symBinAddr: 0x10000DA1C, symSize: 0x2C }
  - { offsetInCU: 0x1437F, offset: 0x1437F, size: 0x8, addend: 0x0, symName: __ZNSt3__13getB7v160006ILm0EJOZN15ChessBoardPrintC1ER10ChessBoardEUlNS2_5ColorEE_EEERNS_13tuple_elementIXT_ENS_5tupleIJDpT0_EEEE4typeERSB_, symObjAddr: 0xB7E0, symBinAddr: 0x10000DD28, symSize: 0x24 }
  - { offsetInCU: 0x143C2, offset: 0x143C2, size: 0x8, addend: 0x0, symName: __ZNSt3__13getB7v160006ILm0EJONS_9allocatorIZN15ChessBoardPrintC1ER10ChessBoardEUlNS3_5ColorEE_EEEEERNS_13tuple_elementIXT_ENS_5tupleIJDpT0_EEEE4typeERSD_, symObjAddr: 0xB81C, symBinAddr: 0x10000DD64, symSize: 0x24 }
  - { offsetInCU: 0x148E9, offset: 0x148E9, size: 0x8, addend: 0x0, symName: __ZNSt3__116forward_as_tupleB7v160006IJRKZN15ChessBoardPrintC1ER10ChessBoardEUlNS2_5ColorEE_EEENS_5tupleIJDpOT_EEESB_, symObjAddr: 0xBDB0, symBinAddr: 0x10000E2F8, symSize: 0x2C }
  - { offsetInCU: 0x14937, offset: 0x14937, size: 0x8, addend: 0x0, symName: __ZNSt3__13getB7v160006ILm0EJRKZN15ChessBoardPrintC1ER10ChessBoardEUlNS2_5ColorEE_EEERNS_13tuple_elementIXT_ENS_5tupleIJDpT0_EEEE4typeERSC_, symObjAddr: 0xBF94, symBinAddr: 0x10000E4DC, symSize: 0x24 }
  - { offsetInCU: 0x1497A, offset: 0x1497A, size: 0x8, addend: 0x0, symName: __ZNSt3__116forward_as_tupleB7v160006IJRKNS_9allocatorIZN15ChessBoardPrintC1ER10ChessBoardEUlNS3_5ColorEE_EEEEENS_5tupleIJDpOT_EEESD_, symObjAddr: 0xC2F0, symBinAddr: 0x10000E838, symSize: 0x2C }
  - { offsetInCU: 0x149C8, offset: 0x149C8, size: 0x8, addend: 0x0, symName: __ZNSt3__13getB7v160006ILm0EJRKNS_9allocatorIZN15ChessBoardPrintC1ER10ChessBoardEUlNS3_5ColorEE_EEEEERNS_13tuple_elementIXT_ENS_5tupleIJDpT0_EEEE4typeERSE_, symObjAddr: 0xC4D4, symBinAddr: 0x10000EA1C, symSize: 0x24 }
  - { offsetInCU: 0x14A0B, offset: 0x14A0B, size: 0x8, addend: 0x0, symName: __ZNSt3__18__invokeB7v160006IRZN15ChessBoardPrintC1ER10ChessBoardEUlNS2_5ColorEE_JS4_EEEDTclclsr3stdE7declvalIT_EEspclsr3stdE7declvalIT0_EEEEOS7_DpOS8_, symObjAddr: 0xC5A0, symBinAddr: 0x10000EAE8, symSize: 0x30 }
  - { offsetInCU: 0x14A58, offset: 0x14A58, size: 0x8, addend: 0x0, symName: __ZNSt3__14swapB7v160006IPNS_10__function6__baseIFvN10ChessBoard5ColorEEEEEENS_9enable_ifIXaasr21is_move_constructibleIT_EE5valuesr18is_move_assignableIS9_EE5valueEvE4typeERS9_SC_, symObjAddr: 0xC980, symBinAddr: 0x10000EEC8, symSize: 0x3C }
  - { offsetInCU: 0x14C0C, offset: 0x14C0C, size: 0x8, addend: 0x0, symName: __ZNSt3__116forward_as_tupleB7v160006IJZN15ChessBoardPrintC1ER10ChessBoardEUlRKNS2_5PieceERKNS_12basic_stringIcNS_11char_traitsIcEENS_9allocatorIcEEEESE_E0_EEENS_5tupleIJDpOT_EEESJ_, symObjAddr: 0xD0DC, symBinAddr: 0x10000F624, symSize: 0x2C }
  - { offsetInCU: 0x14C45, offset: 0x14C45, size: 0x8, addend: 0x0, symName: __ZNSt3__116forward_as_tupleB7v160006IJNS_9allocatorIZN15ChessBoardPrintC1ER10ChessBoardEUlRKNS3_5PieceERKNS_12basic_stringIcNS_11char_traitsIcEENS1_IcEEEESE_E0_EEEEENS_5tupleIJDpOT_EEESK_, symObjAddr: 0xD108, symBinAddr: 0x10000F650, symSize: 0x2C }
  - { offsetInCU: 0x14CA8, offset: 0x14CA8, size: 0x8, addend: 0x0, symName: __ZNSt3__13getB7v160006ILm0EJOZN15ChessBoardPrintC1ER10ChessBoardEUlRKNS2_5PieceERKNS_12basic_stringIcNS_11char_traitsIcEENS_9allocatorIcEEEESE_E0_EEERNS_13tuple_elementIXT_ENS_5tupleIJDpT0_EEEE4typeERSL_, symObjAddr: 0xD414, symBinAddr: 0x10000F95C, symSize: 0x24 }
  - { offsetInCU: 0x14CEB, offset: 0x14CEB, size: 0x8, addend: 0x0, symName: __ZNSt3__13getB7v160006ILm0EJONS_9allocatorIZN15ChessBoardPrintC1ER10ChessBoardEUlRKNS3_5PieceERKNS_12basic_stringIcNS_11char_traitsIcEENS1_IcEEEESE_E0_EEEEERNS_13tuple_elementIXT_ENS_5tupleIJDpT0_EEEE4typeERSM_, symObjAddr: 0xD450, symBinAddr: 0x10000F998, symSize: 0x24 }
  - { offsetInCU: 0x15212, offset: 0x15212, size: 0x8, addend: 0x0, symName: __ZNSt3__116forward_as_tupleB7v160006IJRKZN15ChessBoardPrintC1ER10ChessBoardEUlRKNS2_5PieceERKNS_12basic_stringIcNS_11char_traitsIcEENS_9allocatorIcEEEESE_E0_EEENS_5tupleIJDpOT_EEESL_, symObjAddr: 0xD9E4, symBinAddr: 0x10000FF2C, symSize: 0x2C }
  - { offsetInCU: 0x15260, offset: 0x15260, size: 0x8, addend: 0x0, symName: __ZNSt3__13getB7v160006ILm0EJRKZN15ChessBoardPrintC1ER10ChessBoardEUlRKNS2_5PieceERKNS_12basic_stringIcNS_11char_traitsIcEENS_9allocatorIcEEEESE_E0_EEERNS_13tuple_elementIXT_ENS_5tupleIJDpT0_EEEE4typeERSM_, symObjAddr: 0xDBC8, symBinAddr: 0x100010110, symSize: 0x24 }
  - { offsetInCU: 0x152A3, offset: 0x152A3, size: 0x8, addend: 0x0, symName: __ZNSt3__116forward_as_tupleB7v160006IJRKNS_9allocatorIZN15ChessBoardPrintC1ER10ChessBoardEUlRKNS3_5PieceERKNS_12basic_stringIcNS_11char_traitsIcEENS1_IcEEEESE_E0_EEEEENS_5tupleIJDpOT_EEESM_, symObjAddr: 0xDF24, symBinAddr: 0x10001046C, symSize: 0x2C }
  - { offsetInCU: 0x152F1, offset: 0x152F1, size: 0x8, addend: 0x0, symName: __ZNSt3__13getB7v160006ILm0EJRKNS_9allocatorIZN15ChessBoardPrintC1ER10ChessBoardEUlRKNS3_5PieceERKNS_12basic_stringIcNS_11char_traitsIcEENS1_IcEEEESE_E0_EEEEERNS_13tuple_elementIXT_ENS_5tupleIJDpT0_EEEE4typeERSN_, symObjAddr: 0xE108, symBinAddr: 0x100010650, symSize: 0x24 }
  - { offsetInCU: 0x15334, offset: 0x15334, size: 0x8, addend: 0x0, symName: __ZNSt3__18__invokeB7v160006IRZN15ChessBoardPrintC1ER10ChessBoardEUlRKNS2_5PieceERKNS_12basic_stringIcNS_11char_traitsIcEENS_9allocatorIcEEEESE_E0_JS6_SE_SE_EEEDTclclsr3stdE7declvalIT_EEspclsr3stdE7declvalIT0_EEEEOSH_DpOSI_, symObjAddr: 0xE1F4, symBinAddr: 0x10001073C, symSize: 0x3C }
  - { offsetInCU: 0x1550C, offset: 0x1550C, size: 0x8, addend: 0x0, symName: __ZNSt3__116forward_as_tupleB7v160006IJZN15ChessBoardPrintC1ER10ChessBoardEUlRKNS_12basic_stringIcNS_11char_traitsIcEENS_9allocatorIcEEEEE_EEENS_5tupleIJDpOT_EEESG_, symObjAddr: 0xEAD8, symBinAddr: 0x100011020, symSize: 0x2C }
  - { offsetInCU: 0x15545, offset: 0x15545, size: 0x8, addend: 0x0, symName: __ZNSt3__116forward_as_tupleB7v160006IJNS_9allocatorIZN15ChessBoardPrintC1ER10ChessBoardEUlRKNS_12basic_stringIcNS_11char_traitsIcEENS1_IcEEEEE_EEEEENS_5tupleIJDpOT_EEESH_, symObjAddr: 0xEB04, symBinAddr: 0x10001104C, symSize: 0x2C }
  - { offsetInCU: 0x155A8, offset: 0x155A8, size: 0x8, addend: 0x0, symName: __ZNSt3__13getB7v160006ILm0EJOZN15ChessBoardPrintC1ER10ChessBoardEUlRKNS_12basic_stringIcNS_11char_traitsIcEENS_9allocatorIcEEEEE_EEERNS_13tuple_elementIXT_ENS_5tupleIJDpT0_EEEE4typeERSI_, symObjAddr: 0xEE10, symBinAddr: 0x100011358, symSize: 0x24 }
  - { offsetInCU: 0x155EB, offset: 0x155EB, size: 0x8, addend: 0x0, symName: __ZNSt3__13getB7v160006ILm0EJONS_9allocatorIZN15ChessBoardPrintC1ER10ChessBoardEUlRKNS_12basic_stringIcNS_11char_traitsIcEENS1_IcEEEEE_EEEEERNS_13tuple_elementIXT_ENS_5tupleIJDpT0_EEEE4typeERSJ_, symObjAddr: 0xEE4C, symBinAddr: 0x100011394, symSize: 0x24 }
  - { offsetInCU: 0x15B12, offset: 0x15B12, size: 0x8, addend: 0x0, symName: __ZNSt3__116forward_as_tupleB7v160006IJRKZN15ChessBoardPrintC1ER10ChessBoardEUlRKNS_12basic_stringIcNS_11char_traitsIcEENS_9allocatorIcEEEEE_EEENS_5tupleIJDpOT_EEESI_, symObjAddr: 0xF3E0, symBinAddr: 0x100011928, symSize: 0x2C }
  - { offsetInCU: 0x15B60, offset: 0x15B60, size: 0x8, addend: 0x0, symName: __ZNSt3__13getB7v160006ILm0EJRKZN15ChessBoardPrintC1ER10ChessBoardEUlRKNS_12basic_stringIcNS_11char_traitsIcEENS_9allocatorIcEEEEE_EEERNS_13tuple_elementIXT_ENS_5tupleIJDpT0_EEEE4typeERSJ_, symObjAddr: 0xF5C4, symBinAddr: 0x100011B0C, symSize: 0x24 }
  - { offsetInCU: 0x15BA3, offset: 0x15BA3, size: 0x8, addend: 0x0, symName: __ZNSt3__116forward_as_tupleB7v160006IJRKNS_9allocatorIZN15ChessBoardPrintC1ER10ChessBoardEUlRKNS_12basic_stringIcNS_11char_traitsIcEENS1_IcEEEEE_EEEEENS_5tupleIJDpOT_EEESJ_, symObjAddr: 0xF920, symBinAddr: 0x100011E68, symSize: 0x2C }
  - { offsetInCU: 0x15BF1, offset: 0x15BF1, size: 0x8, addend: 0x0, symName: __ZNSt3__13getB7v160006ILm0EJRKNS_9allocatorIZN15ChessBoardPrintC1ER10ChessBoardEUlRKNS_12basic_stringIcNS_11char_traitsIcEENS1_IcEEEEE_EEEEERNS_13tuple_elementIXT_ENS_5tupleIJDpT0_EEEE4typeERSK_, symObjAddr: 0xFB04, symBinAddr: 0x10001204C, symSize: 0x24 }
  - { offsetInCU: 0x15C34, offset: 0x15C34, size: 0x8, addend: 0x0, symName: __ZNSt3__18__invokeB7v160006IRZN15ChessBoardPrintC1ER10ChessBoardEUlRKNS_12basic_stringIcNS_11char_traitsIcEENS_9allocatorIcEEEEE_JSB_EEEDTclclsr3stdE7declvalIT_EEspclsr3stdE7declvalIT0_EEEEOSE_DpOSF_, symObjAddr: 0xFBD0, symBinAddr: 0x100012118, symSize: 0x2C }
  - { offsetInCU: 0x15C81, offset: 0x15C81, size: 0x8, addend: 0x0, symName: __ZNSt3__14swapB7v160006IPNS_10__function6__baseIFvRKNS_12basic_stringIcNS_11char_traitsIcEENS_9allocatorIcEEEEEEEEENS_9enable_ifIXaasr21is_move_constructibleIT_EE5valuesr18is_move_assignableISF_EE5valueEvE4typeERSF_SI_, symObjAddr: 0xFF70, symBinAddr: 0x1000124B8, symSize: 0x3C }
  - { offsetInCU: 0x15E35, offset: 0x15E35, size: 0x8, addend: 0x0, symName: __ZNSt3__116forward_as_tupleB7v160006IJZN15ChessBoardPrintC1ER10ChessBoardEUlRKNS_6vectorINS4_INS_10unique_ptrINS2_5PieceENS_14default_deleteIS6_EEEENS_9allocatorIS9_EEEENSA_ISC_EEEEE_EEENS_5tupleIJDpOT_EEESL_, symObjAddr: 0x10740, symBinAddr: 0x100012C88, symSize: 0x2C }
  - { offsetInCU: 0x15E6E, offset: 0x15E6E, size: 0x8, addend: 0x0, symName: __ZNSt3__116forward_as_tupleB7v160006IJNS_9allocatorIZN15ChessBoardPrintC1ER10ChessBoardEUlRKNS_6vectorINS5_INS_10unique_ptrINS3_5PieceENS_14default_deleteIS7_EEEENS1_ISA_EEEENS1_ISC_EEEEE_EEEEENS_5tupleIJDpOT_EEESM_, symObjAddr: 0x1076C, symBinAddr: 0x100012CB4, symSize: 0x2C }
  - { offsetInCU: 0x15ED1, offset: 0x15ED1, size: 0x8, addend: 0x0, symName: __ZNSt3__13getB7v160006ILm0EJOZN15ChessBoardPrintC1ER10ChessBoardEUlRKNS_6vectorINS4_INS_10unique_ptrINS2_5PieceENS_14default_deleteIS6_EEEENS_9allocatorIS9_EEEENSA_ISC_EEEEE_EEERNS_13tuple_elementIXT_ENS_5tupleIJDpT0_EEEE4typeERSN_, symObjAddr: 0x10A78, symBinAddr: 0x100012FC0, symSize: 0x24 }
  - { offsetInCU: 0x15F14, offset: 0x15F14, size: 0x8, addend: 0x0, symName: __ZNSt3__13getB7v160006ILm0EJONS_9allocatorIZN15ChessBoardPrintC1ER10ChessBoardEUlRKNS_6vectorINS5_INS_10unique_ptrINS3_5PieceENS_14default_deleteIS7_EEEENS1_ISA_EEEENS1_ISC_EEEEE_EEEEERNS_13tuple_elementIXT_ENS_5tupleIJDpT0_EEEE4typeERSO_, symObjAddr: 0x10AB4, symBinAddr: 0x100012FFC, symSize: 0x24 }
  - { offsetInCU: 0x1643B, offset: 0x1643B, size: 0x8, addend: 0x0, symName: __ZNSt3__116forward_as_tupleB7v160006IJRKZN15ChessBoardPrintC1ER10ChessBoardEUlRKNS_6vectorINS4_INS_10unique_ptrINS2_5PieceENS_14default_deleteIS6_EEEENS_9allocatorIS9_EEEENSA_ISC_EEEEE_EEENS_5tupleIJDpOT_EEESN_, symObjAddr: 0x11048, symBinAddr: 0x100013590, symSize: 0x2C }
  - { offsetInCU: 0x16489, offset: 0x16489, size: 0x8, addend: 0x0, symName: __ZNSt3__13getB7v160006ILm0EJRKZN15ChessBoardPrintC1ER10ChessBoardEUlRKNS_6vectorINS4_INS_10unique_ptrINS2_5PieceENS_14default_deleteIS6_EEEENS_9allocatorIS9_EEEENSA_ISC_EEEEE_EEERNS_13tuple_elementIXT_ENS_5tupleIJDpT0_EEEE4typeERSO_, symObjAddr: 0x1122C, symBinAddr: 0x100013774, symSize: 0x24 }
  - { offsetInCU: 0x164CC, offset: 0x164CC, size: 0x8, addend: 0x0, symName: __ZNSt3__116forward_as_tupleB7v160006IJRKNS_9allocatorIZN15ChessBoardPrintC1ER10ChessBoardEUlRKNS_6vectorINS5_INS_10unique_ptrINS3_5PieceENS_14default_deleteIS7_EEEENS1_ISA_EEEENS1_ISC_EEEEE_EEEEENS_5tupleIJDpOT_EEESO_, symObjAddr: 0x11588, symBinAddr: 0x100013AD0, symSize: 0x2C }
  - { offsetInCU: 0x1651A, offset: 0x1651A, size: 0x8, addend: 0x0, symName: __ZNSt3__13getB7v160006ILm0EJRKNS_9allocatorIZN15ChessBoardPrintC1ER10ChessBoardEUlRKNS_6vectorINS5_INS_10unique_ptrINS3_5PieceENS_14default_deleteIS7_EEEENS1_ISA_EEEENS1_ISC_EEEEE_EEEEERNS_13tuple_elementIXT_ENS_5tupleIJDpT0_EEEE4typeERSP_, symObjAddr: 0x1176C, symBinAddr: 0x100013CB4, symSize: 0x24 }
  - { offsetInCU: 0x1655D, offset: 0x1655D, size: 0x8, addend: 0x0, symName: __ZNSt3__18__invokeB7v160006IRZN15ChessBoardPrintC1ER10ChessBoardEUlRKNS_6vectorINS4_INS_10unique_ptrINS2_5PieceENS_14default_deleteIS6_EEEENS_9allocatorIS9_EEEENSA_ISC_EEEEE_JSG_EEEDTclclsr3stdE7declvalIT_EEspclsr3stdE7declvalIT0_EEEEOSJ_DpOSK_, symObjAddr: 0x11838, symBinAddr: 0x100013D80, symSize: 0x2C }
  - { offsetInCU: 0x165AA, offset: 0x165AA, size: 0x8, addend: 0x0, symName: __ZNSt3__120__throw_out_of_rangeB7v160006EPKc, symObjAddr: 0x11B74, symBinAddr: 0x1000140BC, symSize: 0x64 }
  - { offsetInCU: 0x165D4, offset: 0x165D4, size: 0x8, addend: 0x0, symName: __ZNSt3__14swapB7v160006IPNS_10__function6__baseIFvRKNS_6vectorINS3_INS_10unique_ptrIN10ChessBoard5PieceENS_14default_deleteIS6_EEEENS_9allocatorIS9_EEEENSA_ISC_EEEEEEEEENS_9enable_ifIXaasr21is_move_constructibleIT_EE5valuesr18is_move_assignableISL_EE5valueEvE4typeERSL_SO_, symObjAddr: 0x11FD8, symBinAddr: 0x100014520, symSize: 0x3C }
  - { offsetInCU: 0x16625, offset: 0x16625, size: 0x8, addend: 0x0, symName: __ZNSt3__1plB7v160006IcNS_11char_traitsIcEENS_9allocatorIcEEEENS_12basic_stringIT_T0_T1_EEOS9_S6_, symObjAddr: 0x12044, symBinAddr: 0x10001458C, symSize: 0x40 }
  - { offsetInCU: 0x1667D, offset: 0x1667D, size: 0x8, addend: 0x0, symName: __ZNSt3__115__debug_db_swapB7v160006INS_12basic_stringIcNS_11char_traitsIcEENS_9allocatorIcEEEEEEvPT_S8_, symObjAddr: 0x123E0, symBinAddr: 0x100014928, symSize: 0x14 }
  - { offsetInCU: 0x166BC, offset: 0x166BC, size: 0x8, addend: 0x0, symName: __ZNSt3__125__throw_bad_function_callB7v160006Ev, symObjAddr: 0x12504, symBinAddr: 0x100014A4C, symSize: 0x38 }
  - { offsetInCU: 0x1670C, offset: 0x1670C, size: 0x8, addend: 0x0, symName: __ZNSt3__118__constexpr_strlenB7v160006EPKc, symObjAddr: 0x12934, symBinAddr: 0x100014E7C, symSize: 0x24 }
  - { offsetInCU: 0x16738, offset: 0x16738, size: 0x8, addend: 0x0, symName: __ZNSt3__1plB7v160006IcNS_11char_traitsIcEENS_9allocatorIcEEEENS_12basic_stringIT_T0_T1_EEOS9_PKS6_, symObjAddr: 0x12C90, symBinAddr: 0x1000151D8, symSize: 0x40 }
  - { offsetInCU: 0x1704A, offset: 0x1704A, size: 0x8, addend: 0x0, symName: __ZSt28__throw_bad_array_new_lengthB7v160006v, symObjAddr: 0x2934, symBinAddr: 0x100004E7C, symSize: 0x34 }
  - { offsetInCU: 0x17C79, offset: 0x17C79, size: 0x8, addend: 0x0, symName: __ZNSt3__16vectorINS0_INS_10unique_ptrIN10ChessBoard5PieceENS_14default_deleteIS3_EEEENS_9allocatorIS6_EEEENS7_IS9_EEE26__swap_out_circular_bufferERNS_14__split_bufferIS9_RSA_EE, symObjAddr: 0x1E50, symBinAddr: 0x100004398, symSize: 0x118 }
  - { offsetInCU: 0x17D12, offset: 0x17D12, size: 0x8, addend: 0x0, symName: __ZNSt3__16vectorINS_10unique_ptrIN10ChessBoard5PieceENS_14default_deleteIS3_EEEENS_9allocatorIS6_EEE26__swap_out_circular_bufferERNS_14__split_bufferIS6_RS8_EE, symObjAddr: 0x4750, symBinAddr: 0x100006C98, symSize: 0x118 }
  - { offsetInCU: 0x17DD2, offset: 0x17DD2, size: 0x8, addend: 0x0, symName: __ZN15ChessBoardPrintC2ER10ChessBoard, symObjAddr: 0x62A8, symBinAddr: 0x1000087F0, symSize: 0x8C }
  - { offsetInCU: 0x1AF4D, offset: 0x1AF4D, size: 0x8, addend: 0x0, symName: _main, symObjAddr: 0x0, symBinAddr: 0x100002548, symSize: 0x88C }
  - { offsetInCU: 0x1AF86, offset: 0x1AF86, size: 0x8, addend: 0x0, symName: __ZN10ChessBoardC1Ev, symObjAddr: 0x88C, symBinAddr: 0x100002DD4, symSize: 0x2C }
  - { offsetInCU: 0x1AFB0, offset: 0x1AFB0, size: 0x8, addend: 0x0, symName: __ZN15ChessBoardPrintC1ER10ChessBoard, symObjAddr: 0x8B8, symBinAddr: 0x100002E00, symSize: 0x34 }
  - { offsetInCU: 0x1AFE8, offset: 0x1AFE8, size: 0x8, addend: 0x0, symName: __ZNSt3__16vectorINS0_INS_10unique_ptrIN10ChessBoard5PieceENS_14default_deleteIS3_EEEENS_9allocatorIS6_EEEENS7_IS9_EEEixB7v160006Em, symObjAddr: 0x95C, symBinAddr: 0x100002EA4, symSize: 0x2C }
  - { offsetInCU: 0x1B01F, offset: 0x1B01F, size: 0x8, addend: 0x0, symName: __ZNSt3__16vectorINS_10unique_ptrIN10ChessBoard5PieceENS_14default_deleteIS3_EEEENS_9allocatorIS6_EEEixB7v160006Em, symObjAddr: 0x988, symBinAddr: 0x100002ED0, symSize: 0x24 }
  - { offsetInCU: 0x1B056, offset: 0x1B056, size: 0x8, addend: 0x0, symName: __ZNSt3__110unique_ptrIN10ChessBoard5PieceENS_14default_deleteIS2_EEEaSB7v160006INS1_4KingENS3_IS7_EEvvEERS5_ONS0_IT_T0_EE, symObjAddr: 0x9AC, symBinAddr: 0x100002EF4, symSize: 0x60 }
  - { offsetInCU: 0x1B09E, offset: 0x1B09E, size: 0x8, addend: 0x0, symName: __ZNSt3__110unique_ptrIN10ChessBoard4KingENS_14default_deleteIS2_EEED1B7v160006Ev, symObjAddr: 0xA0C, symBinAddr: 0x100002F54, symSize: 0x2C }
  - { offsetInCU: 0x1B0C8, offset: 0x1B0C8, size: 0x8, addend: 0x0, symName: __ZNSt3__110unique_ptrIN10ChessBoard5PieceENS_14default_deleteIS2_EEEaSB7v160006INS1_6KnightENS3_IS7_EEvvEERS5_ONS0_IT_T0_EE, symObjAddr: 0xAA8, symBinAddr: 0x100002FF0, symSize: 0x60 }
  - { offsetInCU: 0x1B110, offset: 0x1B110, size: 0x8, addend: 0x0, symName: __ZNSt3__110unique_ptrIN10ChessBoard6KnightENS_14default_deleteIS2_EEED1B7v160006Ev, symObjAddr: 0xB08, symBinAddr: 0x100003050, symSize: 0x2C }
  - { offsetInCU: 0x1B13A, offset: 0x1B13A, size: 0x8, addend: 0x0, symName: __ZNSt3__113basic_ostreamIcNS_11char_traitsIcEEElsB7v160006EPFRS3_S4_E, symObjAddr: 0xB7C, symBinAddr: 0x1000030C4, symSize: 0x2C }
  - { offsetInCU: 0x1B16E, offset: 0x1B16E, size: 0x8, addend: 0x0, symName: __ZN10ChessBoard10move_pieceERKNSt3__112basic_stringIcNS0_11char_traitsIcEENS0_9allocatorIcEEEES8_, symObjAddr: 0xC00, symBinAddr: 0x100003148, symSize: 0x490 }
  - { offsetInCU: 0x1B228, offset: 0x1B228, size: 0x8, addend: 0x0, symName: __ZNSt3__112basic_stringIcNS_11char_traitsIcEENS_9allocatorIcEEEC1B7v160006IDnEEPKc, symObjAddr: 0x1090, symBinAddr: 0x1000035D8, symSize: 0x34 }
  - { offsetInCU: 0x1B266, offset: 0x1B266, size: 0x8, addend: 0x0, symName: __ZN10ChessBoardD1Ev, symObjAddr: 0x10C4, symBinAddr: 0x10000360C, symSize: 0x2C }
  - { offsetInCU: 0x1B292, offset: 0x1B292, size: 0x8, addend: 0x0, symName: __ZN10ChessBoardC2Ev, symObjAddr: 0x10F0, symBinAddr: 0x100003638, symSize: 0x158 }
  - { offsetInCU: 0x1B310, offset: 0x1B310, size: 0x8, addend: 0x0, symName: __ZNSt3__16vectorINS0_INS_10unique_ptrIN10ChessBoard5PieceENS_14default_deleteIS3_EEEENS_9allocatorIS6_EEEENS7_IS9_EEEC1B7v160006Ev, symObjAddr: 0x1248, symBinAddr: 0x100003790, symSize: 0x2C }
  - { offsetInCU: 0x1B33A, offset: 0x1B33A, size: 0x8, addend: 0x0, symName: __ZNSt3__18functionIFvRKNS_6vectorINS1_INS_10unique_ptrIN10ChessBoard5PieceENS_14default_deleteIS4_EEEENS_9allocatorIS7_EEEENS8_ISA_EEEEEEC1B7v160006Ev, symObjAddr: 0x1274, symBinAddr: 0x1000037BC, symSize: 0x2C }
  - { offsetInCU: 0x1B364, offset: 0x1B364, size: 0x8, addend: 0x0, symName: __ZNSt3__18functionIFvRKN10ChessBoard5PieceERKNS_12basic_stringIcNS_11char_traitsIcEENS_9allocatorIcEEEESC_EEC1B7v160006Ev, symObjAddr: 0x12A0, symBinAddr: 0x1000037E8, symSize: 0x2C }
  - { offsetInCU: 0x1B38E, offset: 0x1B38E, size: 0x8, addend: 0x0, symName: __ZNSt3__18functionIFvRKN10ChessBoard5PieceERKNS_12basic_stringIcNS_11char_traitsIcEENS_9allocatorIcEEEEEEC1B7v160006Ev, symObjAddr: 0x12CC, symBinAddr: 0x100003814, symSize: 0x2C }
  - { offsetInCU: 0x1B3B8, offset: 0x1B3B8, size: 0x8, addend: 0x0, symName: __ZNSt3__18functionIFvN10ChessBoard5ColorEEEC1B7v160006Ev, symObjAddr: 0x12F8, symBinAddr: 0x100003840, symSize: 0x2C }
  - { offsetInCU: 0x1B3E2, offset: 0x1B3E2, size: 0x8, addend: 0x0, symName: __ZNSt3__18functionIFvRKNS_12basic_stringIcNS_11char_traitsIcEENS_9allocatorIcEEEEEEC1B7v160006Ev, symObjAddr: 0x1324, symBinAddr: 0x10000386C, symSize: 0x2C }
  - { offsetInCU: 0x1B40C, offset: 0x1B40C, size: 0x8, addend: 0x0, symName: __ZNSt3__16vectorINS0_INS_10unique_ptrIN10ChessBoard5PieceENS_14default_deleteIS3_EEEENS_9allocatorIS6_EEEENS7_IS9_EEE6resizeEm, symObjAddr: 0x1350, symBinAddr: 0x100003898, symSize: 0x9C }
  - { offsetInCU: 0x1B452, offset: 0x1B452, size: 0x8, addend: 0x0, symName: __ZNSt3__16vectorINS0_INS_10unique_ptrIN10ChessBoard5PieceENS_14default_deleteIS3_EEEENS_9allocatorIS6_EEEENS7_IS9_EEE5beginB7v160006Ev, symObjAddr: 0x13EC, symBinAddr: 0x100003934, symSize: 0x30 }
  - { offsetInCU: 0x1B47A, offset: 0x1B47A, size: 0x8, addend: 0x0, symName: __ZNSt3__16vectorINS0_INS_10unique_ptrIN10ChessBoard5PieceENS_14default_deleteIS3_EEEENS_9allocatorIS6_EEEENS7_IS9_EEE3endB7v160006Ev, symObjAddr: 0x141C, symBinAddr: 0x100003964, symSize: 0x30 }
  - { offsetInCU: 0x1B4A2, offset: 0x1B4A2, size: 0x8, addend: 0x0, symName: __ZNKSt3__111__wrap_iterIPNS_6vectorINS_10unique_ptrIN10ChessBoard5PieceENS_14default_deleteIS4_EEEENS_9allocatorIS7_EEEEEdeB7v160006Ev, symObjAddr: 0x1480, symBinAddr: 0x1000039C8, symSize: 0x18 }
  - { offsetInCU: 0x1B4C8, offset: 0x1B4C8, size: 0x8, addend: 0x0, symName: __ZNSt3__16vectorINS_10unique_ptrIN10ChessBoard5PieceENS_14default_deleteIS3_EEEENS_9allocatorIS6_EEE6resizeEm, symObjAddr: 0x1498, symBinAddr: 0x1000039E0, symSize: 0x94 }
  - { offsetInCU: 0x1B50E, offset: 0x1B50E, size: 0x8, addend: 0x0, symName: __ZNSt3__111__wrap_iterIPNS_6vectorINS_10unique_ptrIN10ChessBoard5PieceENS_14default_deleteIS4_EEEENS_9allocatorIS7_EEEEEppB7v160006Ev, symObjAddr: 0x152C, symBinAddr: 0x100003A74, symSize: 0x20 }
  - { offsetInCU: 0x1B534, offset: 0x1B534, size: 0x8, addend: 0x0, symName: __ZNSt3__18functionIFvRKNS_12basic_stringIcNS_11char_traitsIcEENS_9allocatorIcEEEEEED1Ev, symObjAddr: 0x154C, symBinAddr: 0x100003A94, symSize: 0x2C }
  - { offsetInCU: 0x1B560, offset: 0x1B560, size: 0x8, addend: 0x0, symName: __ZNSt3__18functionIFvRKN10ChessBoard5PieceERKNS_12basic_stringIcNS_11char_traitsIcEENS_9allocatorIcEEEESC_EED1Ev, symObjAddr: 0x1578, symBinAddr: 0x100003AC0, symSize: 0x2C }
  - { offsetInCU: 0x1B58C, offset: 0x1B58C, size: 0x8, addend: 0x0, symName: __ZNSt3__18functionIFvN10ChessBoard5ColorEEED1Ev, symObjAddr: 0x15A4, symBinAddr: 0x100003AEC, symSize: 0x2C }
  - { offsetInCU: 0x1B5B8, offset: 0x1B5B8, size: 0x8, addend: 0x0, symName: __ZNSt3__18functionIFvRKN10ChessBoard5PieceERKNS_12basic_stringIcNS_11char_traitsIcEENS_9allocatorIcEEEEEED1Ev, symObjAddr: 0x15D0, symBinAddr: 0x100003B18, symSize: 0x2C }
  - { offsetInCU: 0x1B5E4, offset: 0x1B5E4, size: 0x8, addend: 0x0, symName: __ZNSt3__18functionIFvRKNS_6vectorINS1_INS_10unique_ptrIN10ChessBoard5PieceENS_14default_deleteIS4_EEEENS_9allocatorIS7_EEEENS8_ISA_EEEEEED1Ev, symObjAddr: 0x15FC, symBinAddr: 0x100003B44, symSize: 0x2C }
  - { offsetInCU: 0x1B610, offset: 0x1B610, size: 0x8, addend: 0x0, symName: __ZNSt3__16vectorINS0_INS_10unique_ptrIN10ChessBoard5PieceENS_14default_deleteIS3_EEEENS_9allocatorIS6_EEEENS7_IS9_EEED1B7v160006Ev, symObjAddr: 0x1628, symBinAddr: 0x100003B70, symSize: 0x2C }
  - { offsetInCU: 0x1B63A, offset: 0x1B63A, size: 0x8, addend: 0x0, symName: __ZNSt3__16vectorINS0_INS_10unique_ptrIN10ChessBoard5PieceENS_14default_deleteIS3_EEEENS_9allocatorIS6_EEEENS7_IS9_EEEC2B7v160006Ev, symObjAddr: 0x1654, symBinAddr: 0x100003B9C, symSize: 0x58 }
  - { offsetInCU: 0x1B670, offset: 0x1B670, size: 0x8, addend: 0x0, symName: __ZNSt3__117__compressed_pairIPNS_6vectorINS_10unique_ptrIN10ChessBoard5PieceENS_14default_deleteIS4_EEEENS_9allocatorIS7_EEEENS8_ISA_EEEC1B7v160006IDnNS_18__default_init_tagEEEOT_OT0_, symObjAddr: 0x16AC, symBinAddr: 0x100003BF4, symSize: 0x3C }
  - { offsetInCU: 0x1B6C8, offset: 0x1B6C8, size: 0x8, addend: 0x0, symName: __ZNSt3__117__compressed_pairIPNS_6vectorINS_10unique_ptrIN10ChessBoard5PieceENS_14default_deleteIS4_EEEENS_9allocatorIS7_EEEENS8_ISA_EEEC2B7v160006IDnNS_18__default_init_tagEEEOT_OT0_, symObjAddr: 0x1704, symBinAddr: 0x100003C4C, symSize: 0x40 }
  - { offsetInCU: 0x1B720, offset: 0x1B720, size: 0x8, addend: 0x0, symName: __ZNSt3__122__compressed_pair_elemIPNS_6vectorINS_10unique_ptrIN10ChessBoard5PieceENS_14default_deleteIS4_EEEENS_9allocatorIS7_EEEELi0ELb0EEC2B7v160006IDnvEEOT_, symObjAddr: 0x1744, symBinAddr: 0x100003C8C, symSize: 0x1C }
  - { offsetInCU: 0x1B762, offset: 0x1B762, size: 0x8, addend: 0x0, symName: __ZNSt3__122__compressed_pair_elemINS_9allocatorINS_6vectorINS_10unique_ptrIN10ChessBoard5PieceENS_14default_deleteIS5_EEEENS1_IS8_EEEEEELi1ELb1EEC2B7v160006ENS_18__default_init_tagE, symObjAddr: 0x1760, symBinAddr: 0x100003CA8, symSize: 0x2C }
  - { offsetInCU: 0x1B796, offset: 0x1B796, size: 0x8, addend: 0x0, symName: __ZNSt3__19allocatorINS_6vectorINS_10unique_ptrIN10ChessBoard5PieceENS_14default_deleteIS4_EEEENS0_IS7_EEEEEC2B7v160006Ev, symObjAddr: 0x178C, symBinAddr: 0x100003CD4, symSize: 0x2C }
  - { offsetInCU: 0x1B7C0, offset: 0x1B7C0, size: 0x8, addend: 0x0, symName: __ZNSt3__116__non_trivial_ifILb1ENS_9allocatorINS_6vectorINS_10unique_ptrIN10ChessBoard5PieceENS_14default_deleteIS5_EEEENS1_IS8_EEEEEEEC2B7v160006Ev, symObjAddr: 0x17B8, symBinAddr: 0x100003D00, symSize: 0x14 }
  - { offsetInCU: 0x1B7EA, offset: 0x1B7EA, size: 0x8, addend: 0x0, symName: __ZNSt3__18functionIFvRKNS_6vectorINS1_INS_10unique_ptrIN10ChessBoard5PieceENS_14default_deleteIS4_EEEENS_9allocatorIS7_EEEENS8_ISA_EEEEEEC2B7v160006Ev, symObjAddr: 0x17CC, symBinAddr: 0x100003D14, symSize: 0x2C }
  - { offsetInCU: 0x1B814, offset: 0x1B814, size: 0x8, addend: 0x0, symName: __ZNSt3__110__function12__value_funcIFvRKNS_6vectorINS2_INS_10unique_ptrIN10ChessBoard5PieceENS_14default_deleteIS5_EEEENS_9allocatorIS8_EEEENS9_ISB_EEEEEEC1B7v160006Ev, symObjAddr: 0x17F8, symBinAddr: 0x100003D40, symSize: 0x2C }
  - { offsetInCU: 0x1B83E, offset: 0x1B83E, size: 0x8, addend: 0x0, symName: __ZNSt3__110__function12__value_funcIFvRKNS_6vectorINS2_INS_10unique_ptrIN10ChessBoard5PieceENS_14default_deleteIS5_EEEENS_9allocatorIS8_EEEENS9_ISB_EEEEEEC2B7v160006Ev, symObjAddr: 0x1824, symBinAddr: 0x100003D6C, symSize: 0x18 }
  - { offsetInCU: 0x1B868, offset: 0x1B868, size: 0x8, addend: 0x0, symName: __ZNSt3__18functionIFvRKN10ChessBoard5PieceERKNS_12basic_stringIcNS_11char_traitsIcEENS_9allocatorIcEEEESC_EEC2B7v160006Ev, symObjAddr: 0x183C, symBinAddr: 0x100003D84, symSize: 0x2C }
  - { offsetInCU: 0x1B892, offset: 0x1B892, size: 0x8, addend: 0x0, symName: __ZNSt3__110__function12__value_funcIFvRKN10ChessBoard5PieceERKNS_12basic_stringIcNS_11char_traitsIcEENS_9allocatorIcEEEESD_EEC1B7v160006Ev, symObjAddr: 0x1868, symBinAddr: 0x100003DB0, symSize: 0x2C }
  - { offsetInCU: 0x1B8BC, offset: 0x1B8BC, size: 0x8, addend: 0x0, symName: __ZNSt3__110__function12__value_funcIFvRKN10ChessBoard5PieceERKNS_12basic_stringIcNS_11char_traitsIcEENS_9allocatorIcEEEESD_EEC2B7v160006Ev, symObjAddr: 0x1894, symBinAddr: 0x100003DDC, symSize: 0x18 }
  - { offsetInCU: 0x1B8E6, offset: 0x1B8E6, size: 0x8, addend: 0x0, symName: __ZNSt3__18functionIFvRKN10ChessBoard5PieceERKNS_12basic_stringIcNS_11char_traitsIcEENS_9allocatorIcEEEEEEC2B7v160006Ev, symObjAddr: 0x18AC, symBinAddr: 0x100003DF4, symSize: 0x2C }
  - { offsetInCU: 0x1B910, offset: 0x1B910, size: 0x8, addend: 0x0, symName: __ZNSt3__110__function12__value_funcIFvRKN10ChessBoard5PieceERKNS_12basic_stringIcNS_11char_traitsIcEENS_9allocatorIcEEEEEEC1B7v160006Ev, symObjAddr: 0x18D8, symBinAddr: 0x100003E20, symSize: 0x2C }
  - { offsetInCU: 0x1B93A, offset: 0x1B93A, size: 0x8, addend: 0x0, symName: __ZNSt3__110__function12__value_funcIFvRKN10ChessBoard5PieceERKNS_12basic_stringIcNS_11char_traitsIcEENS_9allocatorIcEEEEEEC2B7v160006Ev, symObjAddr: 0x1904, symBinAddr: 0x100003E4C, symSize: 0x18 }
  - { offsetInCU: 0x1B964, offset: 0x1B964, size: 0x8, addend: 0x0, symName: __ZNSt3__18functionIFvN10ChessBoard5ColorEEEC2B7v160006Ev, symObjAddr: 0x191C, symBinAddr: 0x100003E64, symSize: 0x2C }
  - { offsetInCU: 0x1B98E, offset: 0x1B98E, size: 0x8, addend: 0x0, symName: __ZNSt3__110__function12__value_funcIFvN10ChessBoard5ColorEEEC1B7v160006Ev, symObjAddr: 0x1948, symBinAddr: 0x100003E90, symSize: 0x2C }
  - { offsetInCU: 0x1B9B8, offset: 0x1B9B8, size: 0x8, addend: 0x0, symName: __ZNSt3__110__function12__value_funcIFvN10ChessBoard5ColorEEEC2B7v160006Ev, symObjAddr: 0x1974, symBinAddr: 0x100003EBC, symSize: 0x18 }
  - { offsetInCU: 0x1B9E2, offset: 0x1B9E2, size: 0x8, addend: 0x0, symName: __ZNSt3__18functionIFvRKNS_12basic_stringIcNS_11char_traitsIcEENS_9allocatorIcEEEEEEC2B7v160006Ev, symObjAddr: 0x198C, symBinAddr: 0x100003ED4, symSize: 0x2C }
  - { offsetInCU: 0x1BA0C, offset: 0x1BA0C, size: 0x8, addend: 0x0, symName: __ZNSt3__110__function12__value_funcIFvRKNS_12basic_stringIcNS_11char_traitsIcEENS_9allocatorIcEEEEEEC1B7v160006Ev, symObjAddr: 0x19B8, symBinAddr: 0x100003F00, symSize: 0x2C }
  - { offsetInCU: 0x1BA36, offset: 0x1BA36, size: 0x8, addend: 0x0, symName: __ZNSt3__110__function12__value_funcIFvRKNS_12basic_stringIcNS_11char_traitsIcEENS_9allocatorIcEEEEEEC2B7v160006Ev, symObjAddr: 0x19E4, symBinAddr: 0x100003F2C, symSize: 0x18 }
  - { offsetInCU: 0x1BA60, offset: 0x1BA60, size: 0x8, addend: 0x0, symName: __ZNKSt3__16vectorINS0_INS_10unique_ptrIN10ChessBoard5PieceENS_14default_deleteIS3_EEEENS_9allocatorIS6_EEEENS7_IS9_EEE4sizeB7v160006Ev, symObjAddr: 0x19FC, symBinAddr: 0x100003F44, symSize: 0x28 }
  - { offsetInCU: 0x1BA86, offset: 0x1BA86, size: 0x8, addend: 0x0, symName: __ZNSt3__16vectorINS0_INS_10unique_ptrIN10ChessBoard5PieceENS_14default_deleteIS3_EEEENS_9allocatorIS6_EEEENS7_IS9_EEE8__appendEm, symObjAddr: 0x1A24, symBinAddr: 0x100003F6C, symSize: 0x108 }
  - { offsetInCU: 0x1BAE1, offset: 0x1BAE1, size: 0x8, addend: 0x0, symName: __ZNSt3__16vectorINS0_INS_10unique_ptrIN10ChessBoard5PieceENS_14default_deleteIS3_EEEENS_9allocatorIS6_EEEENS7_IS9_EEE17__destruct_at_endB7v160006EPS9_, symObjAddr: 0x1B2C, symBinAddr: 0x100004074, symSize: 0x60 }
  - { offsetInCU: 0x1BB25, offset: 0x1BB25, size: 0x8, addend: 0x0, symName: __ZNSt3__16vectorINS0_INS_10unique_ptrIN10ChessBoard5PieceENS_14default_deleteIS3_EEEENS_9allocatorIS6_EEEENS7_IS9_EEE9__end_capB7v160006Ev, symObjAddr: 0x1B8C, symBinAddr: 0x1000040D4, symSize: 0x28 }
  - { offsetInCU: 0x1BB4B, offset: 0x1BB4B, size: 0x8, addend: 0x0, symName: __ZNSt3__16vectorINS0_INS_10unique_ptrIN10ChessBoard5PieceENS_14default_deleteIS3_EEEENS_9allocatorIS6_EEEENS7_IS9_EEE18__construct_at_endEm, symObjAddr: 0x1BB4, symBinAddr: 0x1000040FC, symSize: 0xC8 }
  - { offsetInCU: 0x1BBBE, offset: 0x1BBBE, size: 0x8, addend: 0x0, symName: __ZNSt3__16vectorINS0_INS_10unique_ptrIN10ChessBoard5PieceENS_14default_deleteIS3_EEEENS_9allocatorIS6_EEEENS7_IS9_EEE7__allocB7v160006Ev, symObjAddr: 0x1C7C, symBinAddr: 0x1000041C4, symSize: 0x28 }
  - { offsetInCU: 0x1BBE4, offset: 0x1BBE4, size: 0x8, addend: 0x0, symName: __ZNKSt3__16vectorINS0_INS_10unique_ptrIN10ChessBoard5PieceENS_14default_deleteIS3_EEEENS_9allocatorIS6_EEEENS7_IS9_EEE11__recommendB7v160006Em, symObjAddr: 0x1CA4, symBinAddr: 0x1000041EC, symSize: 0xB4 }
  - { offsetInCU: 0x1BC39, offset: 0x1BC39, size: 0x8, addend: 0x0, symName: __ZNSt3__114__split_bufferINS_6vectorINS_10unique_ptrIN10ChessBoard5PieceENS_14default_deleteIS4_EEEENS_9allocatorIS7_EEEERNS8_ISA_EEEC1EmmSC_, symObjAddr: 0x1D58, symBinAddr: 0x1000042A0, symSize: 0x44 }
  - { offsetInCU: 0x1BC8F, offset: 0x1BC8F, size: 0x8, addend: 0x0, symName: __ZNSt3__114__split_bufferINS_6vectorINS_10unique_ptrIN10ChessBoard5PieceENS_14default_deleteIS4_EEEENS_9allocatorIS7_EEEERNS8_ISA_EEE18__construct_at_endEm, symObjAddr: 0x1D9C, symBinAddr: 0x1000042E4, symSize: 0xB4 }
  - { offsetInCU: 0x1BCD2, offset: 0x1BCD2, size: 0x8, addend: 0x0, symName: __ZNSt3__114__split_bufferINS_6vectorINS_10unique_ptrIN10ChessBoard5PieceENS_14default_deleteIS4_EEEENS_9allocatorIS7_EEEERNS8_ISA_EEED1Ev, symObjAddr: 0x1F68, symBinAddr: 0x1000044B0, symSize: 0x2C }
  - { offsetInCU: 0x1BCFE, offset: 0x1BCFE, size: 0x8, addend: 0x0, symName: __ZNSt3__117__compressed_pairIPNS_6vectorINS_10unique_ptrIN10ChessBoard5PieceENS_14default_deleteIS4_EEEENS_9allocatorIS7_EEEENS8_ISA_EEE5firstB7v160006Ev, symObjAddr: 0x1F94, symBinAddr: 0x1000044DC, symSize: 0x24 }
  - { offsetInCU: 0x1BD24, offset: 0x1BD24, size: 0x8, addend: 0x0, symName: __ZNSt3__122__compressed_pair_elemIPNS_6vectorINS_10unique_ptrIN10ChessBoard5PieceENS_14default_deleteIS4_EEEENS_9allocatorIS7_EEEELi0ELb0EE5__getB7v160006Ev, symObjAddr: 0x1FB8, symBinAddr: 0x100004500, symSize: 0x14 }
  - { offsetInCU: 0x1BD63, offset: 0x1BD63, size: 0x8, addend: 0x0, symName: __ZNSt3__16vectorINS0_INS_10unique_ptrIN10ChessBoard5PieceENS_14default_deleteIS3_EEEENS_9allocatorIS6_EEEENS7_IS9_EEE21_ConstructTransactionC1B7v160006ERSB_m, symObjAddr: 0x1FCC, symBinAddr: 0x100004514, symSize: 0x3C }
  - { offsetInCU: 0x1BDAB, offset: 0x1BDAB, size: 0x8, addend: 0x0, symName: __ZNSt3__116allocator_traitsINS_9allocatorINS_6vectorINS_10unique_ptrIN10ChessBoard5PieceENS_14default_deleteIS5_EEEENS1_IS8_EEEEEEE9constructB7v160006ISA_JEvEEvRSB_PT_DpOT0_, symObjAddr: 0x2008, symBinAddr: 0x100004550, symSize: 0x2C }
  - { offsetInCU: 0x1BDED, offset: 0x1BDED, size: 0x8, addend: 0x0, symName: __ZNSt3__16vectorINS0_INS_10unique_ptrIN10ChessBoard5PieceENS_14default_deleteIS3_EEEENS_9allocatorIS6_EEEENS7_IS9_EEE21_ConstructTransactionD1B7v160006Ev, symObjAddr: 0x2048, symBinAddr: 0x100004590, symSize: 0x2C }
  - { offsetInCU: 0x1BE17, offset: 0x1BE17, size: 0x8, addend: 0x0, symName: __ZNSt3__16vectorINS0_INS_10unique_ptrIN10ChessBoard5PieceENS_14default_deleteIS3_EEEENS_9allocatorIS6_EEEENS7_IS9_EEE21_ConstructTransactionC2B7v160006ERSB_m, symObjAddr: 0x2074, symBinAddr: 0x1000045BC, symSize: 0x4C }
  - { offsetInCU: 0x1BE5F, offset: 0x1BE5F, size: 0x8, addend: 0x0, symName: __ZNSt3__19allocatorINS_6vectorINS_10unique_ptrIN10ChessBoard5PieceENS_14default_deleteIS4_EEEENS0_IS7_EEEEE9constructB7v160006IS9_JEEEvPT_DpOT0_, symObjAddr: 0x20C0, symBinAddr: 0x100004608, symSize: 0x28 }
  - { offsetInCU: 0x1BEA1, offset: 0x1BEA1, size: 0x8, addend: 0x0, symName: __ZNSt3__16vectorINS_10unique_ptrIN10ChessBoard5PieceENS_14default_deleteIS3_EEEENS_9allocatorIS6_EEEC1B7v160006Ev, symObjAddr: 0x20E8, symBinAddr: 0x100004630, symSize: 0x2C }
  - { offsetInCU: 0x1BECB, offset: 0x1BECB, size: 0x8, addend: 0x0, symName: __ZNSt3__16vectorINS_10unique_ptrIN10ChessBoard5PieceENS_14default_deleteIS3_EEEENS_9allocatorIS6_EEEC2B7v160006Ev, symObjAddr: 0x2114, symBinAddr: 0x10000465C, symSize: 0x58 }
  - { offsetInCU: 0x1BEF5, offset: 0x1BEF5, size: 0x8, addend: 0x0, symName: __ZNSt3__117__compressed_pairIPNS_10unique_ptrIN10ChessBoard5PieceENS_14default_deleteIS3_EEEENS_9allocatorIS6_EEEC1B7v160006IDnNS_18__default_init_tagEEEOT_OT0_, symObjAddr: 0x216C, symBinAddr: 0x1000046B4, symSize: 0x3C }
  - { offsetInCU: 0x1BF4D, offset: 0x1BF4D, size: 0x8, addend: 0x0, symName: __ZNSt3__117__compressed_pairIPNS_10unique_ptrIN10ChessBoard5PieceENS_14default_deleteIS3_EEEENS_9allocatorIS6_EEEC2B7v160006IDnNS_18__default_init_tagEEEOT_OT0_, symObjAddr: 0x21B8, symBinAddr: 0x100004700, symSize: 0x40 }
  - { offsetInCU: 0x1BFA5, offset: 0x1BFA5, size: 0x8, addend: 0x0, symName: __ZNSt3__122__compressed_pair_elemIPNS_10unique_ptrIN10ChessBoard5PieceENS_14default_deleteIS3_EEEELi0ELb0EEC2B7v160006IDnvEEOT_, symObjAddr: 0x21F8, symBinAddr: 0x100004740, symSize: 0x1C }
  - { offsetInCU: 0x1BFE7, offset: 0x1BFE7, size: 0x8, addend: 0x0, symName: __ZNSt3__122__compressed_pair_elemINS_9allocatorINS_10unique_ptrIN10ChessBoard5PieceENS_14default_deleteIS4_EEEEEELi1ELb1EEC2B7v160006ENS_18__default_init_tagE, symObjAddr: 0x2214, symBinAddr: 0x10000475C, symSize: 0x2C }
  - { offsetInCU: 0x1C01B, offset: 0x1C01B, size: 0x8, addend: 0x0, symName: __ZNSt3__19allocatorINS_10unique_ptrIN10ChessBoard5PieceENS_14default_deleteIS3_EEEEEC2B7v160006Ev, symObjAddr: 0x2240, symBinAddr: 0x100004788, symSize: 0x2C }
  - { offsetInCU: 0x1C045, offset: 0x1C045, size: 0x8, addend: 0x0, symName: __ZNSt3__116__non_trivial_ifILb1ENS_9allocatorINS_10unique_ptrIN10ChessBoard5PieceENS_14default_deleteIS4_EEEEEEEC2B7v160006Ev, symObjAddr: 0x226C, symBinAddr: 0x1000047B4, symSize: 0x14 }
  - { offsetInCU: 0x1C06F, offset: 0x1C06F, size: 0x8, addend: 0x0, symName: __ZNSt3__16vectorINS0_INS_10unique_ptrIN10ChessBoard5PieceENS_14default_deleteIS3_EEEENS_9allocatorIS6_EEEENS7_IS9_EEE21_ConstructTransactionD2B7v160006Ev, symObjAddr: 0x2280, symBinAddr: 0x1000047C8, symSize: 0x20 }
  - { offsetInCU: 0x1C099, offset: 0x1C099, size: 0x8, addend: 0x0, symName: __ZNSt3__117__compressed_pairIPNS_6vectorINS_10unique_ptrIN10ChessBoard5PieceENS_14default_deleteIS4_EEEENS_9allocatorIS7_EEEENS8_ISA_EEE6secondB7v160006Ev, symObjAddr: 0x22A0, symBinAddr: 0x1000047E8, symSize: 0x24 }
  - { offsetInCU: 0x1C0BF, offset: 0x1C0BF, size: 0x8, addend: 0x0, symName: __ZNSt3__122__compressed_pair_elemINS_9allocatorINS_6vectorINS_10unique_ptrIN10ChessBoard5PieceENS_14default_deleteIS5_EEEENS1_IS8_EEEEEELi1ELb1EE5__getB7v160006Ev, symObjAddr: 0x22C4, symBinAddr: 0x10000480C, symSize: 0x14 }
  - { offsetInCU: 0x1C0E5, offset: 0x1C0E5, size: 0x8, addend: 0x0, symName: __ZNKSt3__16vectorINS0_INS_10unique_ptrIN10ChessBoard5PieceENS_14default_deleteIS3_EEEENS_9allocatorIS6_EEEENS7_IS9_EEE8max_sizeEv, symObjAddr: 0x22D8, symBinAddr: 0x100004820, symSize: 0x60 }
  - { offsetInCU: 0x1C10D, offset: 0x1C10D, size: 0x8, addend: 0x0, symName: __ZNKSt3__16vectorINS0_INS_10unique_ptrIN10ChessBoard5PieceENS_14default_deleteIS3_EEEENS_9allocatorIS6_EEEENS7_IS9_EEE20__throw_length_errorB7v160006Ev, symObjAddr: 0x2338, symBinAddr: 0x100004880, symSize: 0x1C }
  - { offsetInCU: 0x1C133, offset: 0x1C133, size: 0x8, addend: 0x0, symName: __ZNKSt3__16vectorINS0_INS_10unique_ptrIN10ChessBoard5PieceENS_14default_deleteIS3_EEEENS_9allocatorIS6_EEEENS7_IS9_EEE8capacityB7v160006Ev, symObjAddr: 0x2354, symBinAddr: 0x10000489C, symSize: 0x40 }
  - { offsetInCU: 0x1C163, offset: 0x1C163, size: 0x8, addend: 0x0, symName: __ZNSt3__116allocator_traitsINS_9allocatorINS_6vectorINS_10unique_ptrIN10ChessBoard5PieceENS_14default_deleteIS5_EEEENS1_IS8_EEEEEEE8max_sizeB7v160006ISB_vEEmRKSB_, symObjAddr: 0x23EC, symBinAddr: 0x100004934, symSize: 0x24 }
  - { offsetInCU: 0x1C191, offset: 0x1C191, size: 0x8, addend: 0x0, symName: __ZNKSt3__16vectorINS0_INS_10unique_ptrIN10ChessBoard5PieceENS_14default_deleteIS3_EEEENS_9allocatorIS6_EEEENS7_IS9_EEE7__allocB7v160006Ev, symObjAddr: 0x2410, symBinAddr: 0x100004958, symSize: 0x28 }
  - { offsetInCU: 0x1C1B7, offset: 0x1C1B7, size: 0x8, addend: 0x0, symName: __ZNSt3__114numeric_limitsIlE3maxB7v160006Ev, symObjAddr: 0x2438, symBinAddr: 0x100004980, symSize: 0x14 }
  - { offsetInCU: 0x1C1DA, offset: 0x1C1DA, size: 0x8, addend: 0x0, symName: __ZNKSt3__16__lessImmEclB7v160006ERKmS3_, symObjAddr: 0x24A0, symBinAddr: 0x1000049E8, symSize: 0x34 }
  - { offsetInCU: 0x1C21C, offset: 0x1C21C, size: 0x8, addend: 0x0, symName: __ZNKSt3__19allocatorINS_6vectorINS_10unique_ptrIN10ChessBoard5PieceENS_14default_deleteIS4_EEEENS0_IS7_EEEEE8max_sizeB7v160006Ev, symObjAddr: 0x24D4, symBinAddr: 0x100004A1C, symSize: 0x18 }
  - { offsetInCU: 0x1C242, offset: 0x1C242, size: 0x8, addend: 0x0, symName: __ZNKSt3__117__compressed_pairIPNS_6vectorINS_10unique_ptrIN10ChessBoard5PieceENS_14default_deleteIS4_EEEENS_9allocatorIS7_EEEENS8_ISA_EEE6secondB7v160006Ev, symObjAddr: 0x24EC, symBinAddr: 0x100004A34, symSize: 0x24 }
  - { offsetInCU: 0x1C268, offset: 0x1C268, size: 0x8, addend: 0x0, symName: __ZNKSt3__122__compressed_pair_elemINS_9allocatorINS_6vectorINS_10unique_ptrIN10ChessBoard5PieceENS_14default_deleteIS5_EEEENS1_IS8_EEEEEELi1ELb1EE5__getB7v160006Ev, symObjAddr: 0x2510, symBinAddr: 0x100004A58, symSize: 0x14 }
  - { offsetInCU: 0x1C28E, offset: 0x1C28E, size: 0x8, addend: 0x0, symName: __ZNSt3__123__libcpp_numeric_limitsIlLb1EE3maxB7v160006Ev, symObjAddr: 0x2524, symBinAddr: 0x100004A6C, symSize: 0x8 }
  - { offsetInCU: 0x1C2A2, offset: 0x1C2A2, size: 0x8, addend: 0x0, symName: __ZNSt12length_errorC1B7v160006EPKc, symObjAddr: 0x2590, symBinAddr: 0x100004AD8, symSize: 0x34 }
  - { offsetInCU: 0x1C2DA, offset: 0x1C2DA, size: 0x8, addend: 0x0, symName: __ZNSt12length_errorC2B7v160006EPKc, symObjAddr: 0x25C4, symBinAddr: 0x100004B0C, symSize: 0x4C }
  - { offsetInCU: 0x1C312, offset: 0x1C312, size: 0x8, addend: 0x0, symName: __ZNKSt3__16vectorINS0_INS_10unique_ptrIN10ChessBoard5PieceENS_14default_deleteIS3_EEEENS_9allocatorIS6_EEEENS7_IS9_EEE9__end_capB7v160006Ev, symObjAddr: 0x2610, symBinAddr: 0x100004B58, symSize: 0x28 }
  - { offsetInCU: 0x1C338, offset: 0x1C338, size: 0x8, addend: 0x0, symName: __ZNKSt3__117__compressed_pairIPNS_6vectorINS_10unique_ptrIN10ChessBoard5PieceENS_14default_deleteIS4_EEEENS_9allocatorIS7_EEEENS8_ISA_EEE5firstB7v160006Ev, symObjAddr: 0x2638, symBinAddr: 0x100004B80, symSize: 0x24 }
  - { offsetInCU: 0x1C35E, offset: 0x1C35E, size: 0x8, addend: 0x0, symName: __ZNKSt3__122__compressed_pair_elemIPNS_6vectorINS_10unique_ptrIN10ChessBoard5PieceENS_14default_deleteIS4_EEEENS_9allocatorIS7_EEEELi0ELb0EE5__getB7v160006Ev, symObjAddr: 0x265C, symBinAddr: 0x100004BA4, symSize: 0x14 }
  - { offsetInCU: 0x1C384, offset: 0x1C384, size: 0x8, addend: 0x0, symName: __ZNSt3__114__split_bufferINS_6vectorINS_10unique_ptrIN10ChessBoard5PieceENS_14default_deleteIS4_EEEENS_9allocatorIS7_EEEERNS8_ISA_EEEC2EmmSC_, symObjAddr: 0x26C4, symBinAddr: 0x100004C0C, symSize: 0xE0 }
  - { offsetInCU: 0x1C3F8, offset: 0x1C3F8, size: 0x8, addend: 0x0, symName: __ZNSt3__117__compressed_pairIPNS_6vectorINS_10unique_ptrIN10ChessBoard5PieceENS_14default_deleteIS4_EEEENS_9allocatorIS7_EEEERNS8_ISA_EEEC1B7v160006IDnSD_EEOT_OT0_, symObjAddr: 0x27A4, symBinAddr: 0x100004CEC, symSize: 0x3C }
  - { offsetInCU: 0x1C450, offset: 0x1C450, size: 0x8, addend: 0x0, symName: __ZNSt3__114__split_bufferINS_6vectorINS_10unique_ptrIN10ChessBoard5PieceENS_14default_deleteIS4_EEEENS_9allocatorIS7_EEEERNS8_ISA_EEE7__allocB7v160006Ev, symObjAddr: 0x2820, symBinAddr: 0x100004D68, symSize: 0x28 }
  - { offsetInCU: 0x1C476, offset: 0x1C476, size: 0x8, addend: 0x0, symName: __ZNSt3__114__split_bufferINS_6vectorINS_10unique_ptrIN10ChessBoard5PieceENS_14default_deleteIS4_EEEENS_9allocatorIS7_EEEERNS8_ISA_EEE9__end_capB7v160006Ev, symObjAddr: 0x2848, symBinAddr: 0x100004D90, symSize: 0x28 }
  - { offsetInCU: 0x1C49C, offset: 0x1C49C, size: 0x8, addend: 0x0, symName: __ZNSt3__117__compressed_pairIPNS_6vectorINS_10unique_ptrIN10ChessBoard5PieceENS_14default_deleteIS4_EEEENS_9allocatorIS7_EEEERNS8_ISA_EEEC2B7v160006IDnSD_EEOT_OT0_, symObjAddr: 0x2870, symBinAddr: 0x100004DB8, symSize: 0x48 }
  - { offsetInCU: 0x1C4F4, offset: 0x1C4F4, size: 0x8, addend: 0x0, symName: __ZNSt3__122__compressed_pair_elemIRNS_9allocatorINS_6vectorINS_10unique_ptrIN10ChessBoard5PieceENS_14default_deleteIS5_EEEENS1_IS8_EEEEEELi1ELb0EEC2B7v160006ISC_vEEOT_, symObjAddr: 0x28B8, symBinAddr: 0x100004E00, symSize: 0x20 }
  - { offsetInCU: 0x1C536, offset: 0x1C536, size: 0x8, addend: 0x0, symName: __ZNSt3__19allocatorINS_6vectorINS_10unique_ptrIN10ChessBoard5PieceENS_14default_deleteIS4_EEEENS0_IS7_EEEEE8allocateB7v160006Em, symObjAddr: 0x28D8, symBinAddr: 0x100004E20, symSize: 0x5C }
  - { offsetInCU: 0x1C56A, offset: 0x1C56A, size: 0x8, addend: 0x0, symName: __ZNSt3__117__compressed_pairIPNS_6vectorINS_10unique_ptrIN10ChessBoard5PieceENS_14default_deleteIS4_EEEENS_9allocatorIS7_EEEERNS8_ISA_EEE6secondB7v160006Ev, symObjAddr: 0x29B4, symBinAddr: 0x100004EFC, symSize: 0x28 }
  - { offsetInCU: 0x1C590, offset: 0x1C590, size: 0x8, addend: 0x0, symName: __ZNSt3__122__compressed_pair_elemIRNS_9allocatorINS_6vectorINS_10unique_ptrIN10ChessBoard5PieceENS_14default_deleteIS5_EEEENS1_IS8_EEEEEELi1ELb0EE5__getB7v160006Ev, symObjAddr: 0x29DC, symBinAddr: 0x100004F24, symSize: 0x18 }
  - { offsetInCU: 0x1C5B6, offset: 0x1C5B6, size: 0x8, addend: 0x0, symName: __ZNSt3__117__compressed_pairIPNS_6vectorINS_10unique_ptrIN10ChessBoard5PieceENS_14default_deleteIS4_EEEENS_9allocatorIS7_EEEERNS8_ISA_EEE5firstB7v160006Ev, symObjAddr: 0x29F4, symBinAddr: 0x100004F3C, symSize: 0x24 }
  - { offsetInCU: 0x1C5E6, offset: 0x1C5E6, size: 0x8, addend: 0x0, symName: __ZNSt3__114__split_bufferINS_6vectorINS_10unique_ptrIN10ChessBoard5PieceENS_14default_deleteIS4_EEEENS_9allocatorIS7_EEEERNS8_ISA_EEE21_ConstructTransactionC1B7v160006EPPSA_m, symObjAddr: 0x2A18, symBinAddr: 0x100004F60, symSize: 0x3C }
  - { offsetInCU: 0x1C62C, offset: 0x1C62C, size: 0x8, addend: 0x0, symName: __ZNSt3__114__split_bufferINS_6vectorINS_10unique_ptrIN10ChessBoard5PieceENS_14default_deleteIS4_EEEENS_9allocatorIS7_EEEERNS8_ISA_EEE21_ConstructTransactionD1B7v160006Ev, symObjAddr: 0x2A54, symBinAddr: 0x100004F9C, symSize: 0x2C }
  - { offsetInCU: 0x1C656, offset: 0x1C656, size: 0x8, addend: 0x0, symName: __ZNSt3__114__split_bufferINS_6vectorINS_10unique_ptrIN10ChessBoard5PieceENS_14default_deleteIS4_EEEENS_9allocatorIS7_EEEERNS8_ISA_EEE21_ConstructTransactionC2B7v160006EPPSA_m, symObjAddr: 0x2A80, symBinAddr: 0x100004FC8, symSize: 0x4C }
  - { offsetInCU: 0x1C69C, offset: 0x1C69C, size: 0x8, addend: 0x0, symName: __ZNSt3__114__split_bufferINS_6vectorINS_10unique_ptrIN10ChessBoard5PieceENS_14default_deleteIS4_EEEENS_9allocatorIS7_EEEERNS8_ISA_EEE21_ConstructTransactionD2B7v160006Ev, symObjAddr: 0x2ACC, symBinAddr: 0x100005014, symSize: 0x20 }
  - { offsetInCU: 0x1C6C6, offset: 0x1C6C6, size: 0x8, addend: 0x0, symName: __ZNKSt3__16vectorINS0_INS_10unique_ptrIN10ChessBoard5PieceENS_14default_deleteIS3_EEEENS_9allocatorIS6_EEEENS7_IS9_EEE17__annotate_deleteB7v160006Ev, symObjAddr: 0x2AEC, symBinAddr: 0x100005034, symSize: 0xD4 }
  - { offsetInCU: 0x1C6EC, offset: 0x1C6EC, size: 0x8, addend: 0x0, symName: __ZNSt3__116reverse_iteratorIPNS_6vectorINS_10unique_ptrIN10ChessBoard5PieceENS_14default_deleteIS4_EEEENS_9allocatorIS7_EEEEEC1B7v160006ESB_, symObjAddr: 0x2CEC, symBinAddr: 0x100005234, symSize: 0x34 }
  - { offsetInCU: 0x1C724, offset: 0x1C724, size: 0x8, addend: 0x0, symName: __ZNKSt3__116reverse_iteratorIPNS_6vectorINS_10unique_ptrIN10ChessBoard5PieceENS_14default_deleteIS4_EEEENS_9allocatorIS7_EEEEE4baseB7v160006Ev, symObjAddr: 0x2D20, symBinAddr: 0x100005268, symSize: 0x18 }
  - { offsetInCU: 0x1C74A, offset: 0x1C74A, size: 0x8, addend: 0x0, symName: __ZNKSt3__16vectorINS0_INS_10unique_ptrIN10ChessBoard5PieceENS_14default_deleteIS3_EEEENS_9allocatorIS6_EEEENS7_IS9_EEE14__annotate_newB7v160006Em, symObjAddr: 0x2D74, symBinAddr: 0x1000052BC, symSize: 0xC8 }
  - { offsetInCU: 0x1C77F, offset: 0x1C77F, size: 0x8, addend: 0x0, symName: __ZNKSt3__16vectorINS0_INS_10unique_ptrIN10ChessBoard5PieceENS_14default_deleteIS3_EEEENS_9allocatorIS6_EEEENS7_IS9_EEE31__annotate_contiguous_containerB7v160006EPKvSD_SD_SD_, symObjAddr: 0x2E4C, symBinAddr: 0x100005394, symSize: 0x20 }
  - { offsetInCU: 0x1C7D5, offset: 0x1C7D5, size: 0x8, addend: 0x0, symName: __ZNKSt3__16vectorINS0_INS_10unique_ptrIN10ChessBoard5PieceENS_14default_deleteIS3_EEEENS_9allocatorIS6_EEEENS7_IS9_EEE4dataB7v160006Ev, symObjAddr: 0x2E6C, symBinAddr: 0x1000053B4, symSize: 0x28 }
  - { offsetInCU: 0x1C7FB, offset: 0x1C7FB, size: 0x8, addend: 0x0, symName: __ZNSt3__129_AllocatorDestroyRangeReverseINS_9allocatorINS_6vectorINS_10unique_ptrIN10ChessBoard5PieceENS_14default_deleteIS5_EEEENS1_IS8_EEEEEENS_16reverse_iteratorIPSA_EEEC1B7v160006ERSB_RSE_SH_, symObjAddr: 0x2EE0, symBinAddr: 0x100005428, symSize: 0x44 }
  - { offsetInCU: 0x1C852, offset: 0x1C852, size: 0x8, addend: 0x0, symName: __ZNSt3__116allocator_traitsINS_9allocatorINS_6vectorINS_10unique_ptrIN10ChessBoard5PieceENS_14default_deleteIS5_EEEENS1_IS8_EEEEEEE9constructB7v160006ISA_JSA_EvEEvRSB_PT_DpOT0_, symObjAddr: 0x2F6C, symBinAddr: 0x1000054B4, symSize: 0x34 }
  - { offsetInCU: 0x1C8A9, offset: 0x1C8A9, size: 0x8, addend: 0x0, symName: __ZNKSt3__116reverse_iteratorIPNS_6vectorINS_10unique_ptrIN10ChessBoard5PieceENS_14default_deleteIS4_EEEENS_9allocatorIS7_EEEEEdeB7v160006Ev, symObjAddr: 0x2FC4, symBinAddr: 0x10000550C, symSize: 0x28 }
  - { offsetInCU: 0x1C8DD, offset: 0x1C8DD, size: 0x8, addend: 0x0, symName: __ZNSt3__116reverse_iteratorIPNS_6vectorINS_10unique_ptrIN10ChessBoard5PieceENS_14default_deleteIS4_EEEENS_9allocatorIS7_EEEEEppB7v160006Ev, symObjAddr: 0x2FEC, symBinAddr: 0x100005534, symSize: 0x20 }
  - { offsetInCU: 0x1C903, offset: 0x1C903, size: 0x8, addend: 0x0, symName: __ZNSt3__128__exception_guard_exceptionsINS_29_AllocatorDestroyRangeReverseINS_9allocatorINS_6vectorINS_10unique_ptrIN10ChessBoard5PieceENS_14default_deleteIS6_EEEENS2_IS9_EEEEEENS_16reverse_iteratorIPSB_EEEEE10__completeB7v160006Ev, symObjAddr: 0x300C, symBinAddr: 0x100005554, symSize: 0x1C }
  - { offsetInCU: 0x1C929, offset: 0x1C929, size: 0x8, addend: 0x0, symName: __ZNSt3__128__exception_guard_exceptionsINS_29_AllocatorDestroyRangeReverseINS_9allocatorINS_6vectorINS_10unique_ptrIN10ChessBoard5PieceENS_14default_deleteIS6_EEEENS2_IS9_EEEEEENS_16reverse_iteratorIPSB_EEEEED1B7v160006Ev, symObjAddr: 0x3028, symBinAddr: 0x100005570, symSize: 0x2C }
  - { offsetInCU: 0x1C953, offset: 0x1C953, size: 0x8, addend: 0x0, symName: __ZNSt3__128__exception_guard_exceptionsINS_29_AllocatorDestroyRangeReverseINS_9allocatorINS_6vectorINS_10unique_ptrIN10ChessBoard5PieceENS_14default_deleteIS6_EEEENS2_IS9_EEEEEENS_16reverse_iteratorIPSB_EEEEEC1B7v160006ESG_, symObjAddr: 0x3054, symBinAddr: 0x10000559C, symSize: 0x34 }
  - { offsetInCU: 0x1C98C, offset: 0x1C98C, size: 0x8, addend: 0x0, symName: __ZNSt3__128__exception_guard_exceptionsINS_29_AllocatorDestroyRangeReverseINS_9allocatorINS_6vectorINS_10unique_ptrIN10ChessBoard5PieceENS_14default_deleteIS6_EEEENS2_IS9_EEEEEENS_16reverse_iteratorIPSB_EEEEEC2B7v160006ESG_, symObjAddr: 0x3088, symBinAddr: 0x1000055D0, symSize: 0x30 }
  - { offsetInCU: 0x1C9C5, offset: 0x1C9C5, size: 0x8, addend: 0x0, symName: __ZNSt3__129_AllocatorDestroyRangeReverseINS_9allocatorINS_6vectorINS_10unique_ptrIN10ChessBoard5PieceENS_14default_deleteIS5_EEEENS1_IS8_EEEEEENS_16reverse_iteratorIPSA_EEEC2B7v160006ERSB_RSE_SH_, symObjAddr: 0x30B8, symBinAddr: 0x100005600, symSize: 0x38 }
  - { offsetInCU: 0x1CA1C, offset: 0x1CA1C, size: 0x8, addend: 0x0, symName: __ZNSt3__19allocatorINS_6vectorINS_10unique_ptrIN10ChessBoard5PieceENS_14default_deleteIS4_EEEENS0_IS7_EEEEE9constructB7v160006IS9_JS9_EEEvPT_DpOT0_, symObjAddr: 0x30F0, symBinAddr: 0x100005638, symSize: 0x30 }
  - { offsetInCU: 0x1CA72, offset: 0x1CA72, size: 0x8, addend: 0x0, symName: __ZNSt3__16vectorINS_10unique_ptrIN10ChessBoard5PieceENS_14default_deleteIS3_EEEENS_9allocatorIS6_EEEC1B7v160006EOS9_, symObjAddr: 0x3120, symBinAddr: 0x100005668, symSize: 0x34 }
  - { offsetInCU: 0x1CAAD, offset: 0x1CAAD, size: 0x8, addend: 0x0, symName: __ZNSt3__16vectorINS_10unique_ptrIN10ChessBoard5PieceENS_14default_deleteIS3_EEEENS_9allocatorIS6_EEEC2B7v160006EOS9_, symObjAddr: 0x3154, symBinAddr: 0x10000569C, symSize: 0xDC }
  - { offsetInCU: 0x1CAE8, offset: 0x1CAE8, size: 0x8, addend: 0x0, symName: __ZNSt3__16vectorINS_10unique_ptrIN10ChessBoard5PieceENS_14default_deleteIS3_EEEENS_9allocatorIS6_EEE7__allocB7v160006Ev, symObjAddr: 0x3230, symBinAddr: 0x100005778, symSize: 0x28 }
  - { offsetInCU: 0x1CB14, offset: 0x1CB14, size: 0x8, addend: 0x0, symName: __ZNSt3__117__compressed_pairIPNS_10unique_ptrIN10ChessBoard5PieceENS_14default_deleteIS3_EEEENS_9allocatorIS6_EEEC1B7v160006IDnS9_EEOT_OT0_, symObjAddr: 0x3258, symBinAddr: 0x1000057A0, symSize: 0x3C }
  - { offsetInCU: 0x1CB6C, offset: 0x1CB6C, size: 0x8, addend: 0x0, symName: __ZNSt3__16vectorINS_10unique_ptrIN10ChessBoard5PieceENS_14default_deleteIS3_EEEENS_9allocatorIS6_EEE9__end_capB7v160006Ev, symObjAddr: 0x32A8, symBinAddr: 0x1000057F0, symSize: 0x28 }
  - { offsetInCU: 0x1CB92, offset: 0x1CB92, size: 0x8, addend: 0x0, symName: __ZNSt3__117__compressed_pairIPNS_10unique_ptrIN10ChessBoard5PieceENS_14default_deleteIS3_EEEENS_9allocatorIS6_EEE6secondB7v160006Ev, symObjAddr: 0x32D0, symBinAddr: 0x100005818, symSize: 0x24 }
  - { offsetInCU: 0x1CBB8, offset: 0x1CBB8, size: 0x8, addend: 0x0, symName: __ZNSt3__122__compressed_pair_elemINS_9allocatorINS_10unique_ptrIN10ChessBoard5PieceENS_14default_deleteIS4_EEEEEELi1ELb1EE5__getB7v160006Ev, symObjAddr: 0x32F4, symBinAddr: 0x10000583C, symSize: 0x14 }
  - { offsetInCU: 0x1CBDE, offset: 0x1CBDE, size: 0x8, addend: 0x0, symName: __ZNSt3__117__compressed_pairIPNS_10unique_ptrIN10ChessBoard5PieceENS_14default_deleteIS3_EEEENS_9allocatorIS6_EEEC2B7v160006IDnS9_EEOT_OT0_, symObjAddr: 0x3308, symBinAddr: 0x100005850, symSize: 0x44 }
  - { offsetInCU: 0x1CC36, offset: 0x1CC36, size: 0x8, addend: 0x0, symName: __ZNSt3__122__compressed_pair_elemINS_9allocatorINS_10unique_ptrIN10ChessBoard5PieceENS_14default_deleteIS4_EEEEEELi1ELb1EEC2B7v160006IS8_vEEOT_, symObjAddr: 0x334C, symBinAddr: 0x100005894, symSize: 0x18 }
  - { offsetInCU: 0x1CC78, offset: 0x1CC78, size: 0x8, addend: 0x0, symName: __ZNSt3__117__compressed_pairIPNS_10unique_ptrIN10ChessBoard5PieceENS_14default_deleteIS3_EEEENS_9allocatorIS6_EEE5firstB7v160006Ev, symObjAddr: 0x3364, symBinAddr: 0x1000058AC, symSize: 0x24 }
  - { offsetInCU: 0x1CC9E, offset: 0x1CC9E, size: 0x8, addend: 0x0, symName: __ZNSt3__122__compressed_pair_elemIPNS_10unique_ptrIN10ChessBoard5PieceENS_14default_deleteIS3_EEEELi0ELb0EE5__getB7v160006Ev, symObjAddr: 0x3388, symBinAddr: 0x1000058D0, symSize: 0x14 }
  - { offsetInCU: 0x1CCC9, offset: 0x1CCC9, size: 0x8, addend: 0x0, symName: __ZNSt3__119__to_address_helperINS_16reverse_iteratorIPNS_6vectorINS_10unique_ptrIN10ChessBoard5PieceENS_14default_deleteIS5_EEEENS_9allocatorIS8_EEEEEEvE6__callB7v160006ERKSD_, symObjAddr: 0x339C, symBinAddr: 0x1000058E4, symSize: 0x38 }
  - { offsetInCU: 0x1CCEC, offset: 0x1CCEC, size: 0x8, addend: 0x0, symName: __ZNKSt3__116reverse_iteratorIPNS_6vectorINS_10unique_ptrIN10ChessBoard5PieceENS_14default_deleteIS4_EEEENS_9allocatorIS7_EEEEEptB7v160006Ev, symObjAddr: 0x33D4, symBinAddr: 0x10000591C, symSize: 0x24 }
  - { offsetInCU: 0x1CD12, offset: 0x1CD12, size: 0x8, addend: 0x0, symName: __ZNSt3__128__exception_guard_exceptionsINS_29_AllocatorDestroyRangeReverseINS_9allocatorINS_6vectorINS_10unique_ptrIN10ChessBoard5PieceENS_14default_deleteIS6_EEEENS2_IS9_EEEEEENS_16reverse_iteratorIPSB_EEEEED2B7v160006Ev, symObjAddr: 0x33F8, symBinAddr: 0x100005940, symSize: 0x50 }
  - { offsetInCU: 0x1CD3C, offset: 0x1CD3C, size: 0x8, addend: 0x0, symName: __ZNKSt3__129_AllocatorDestroyRangeReverseINS_9allocatorINS_6vectorINS_10unique_ptrIN10ChessBoard5PieceENS_14default_deleteIS5_EEEENS1_IS8_EEEEEENS_16reverse_iteratorIPSA_EEEclB7v160006Ev, symObjAddr: 0x3448, symBinAddr: 0x100005990, symSize: 0xB4 }
  - { offsetInCU: 0x1CD63, offset: 0x1CD63, size: 0x8, addend: 0x0, symName: __ZNSt3__116reverse_iteratorINS0_IPNS_6vectorINS_10unique_ptrIN10ChessBoard5PieceENS_14default_deleteIS4_EEEENS_9allocatorIS7_EEEEEEEC1B7v160006ESC_, symObjAddr: 0x356C, symBinAddr: 0x100005AB4, symSize: 0x3C }
  - { offsetInCU: 0x1CD9B, offset: 0x1CD9B, size: 0x8, addend: 0x0, symName: __ZNSt3__116allocator_traitsINS_9allocatorINS_6vectorINS_10unique_ptrIN10ChessBoard5PieceENS_14default_deleteIS5_EEEENS1_IS8_EEEEEEE7destroyB7v160006ISA_vEEvRSB_PT_, symObjAddr: 0x3608, symBinAddr: 0x100005B50, symSize: 0x2C }
  - { offsetInCU: 0x1CDD8, offset: 0x1CDD8, size: 0x8, addend: 0x0, symName: __ZNSt3__116reverse_iteratorINS0_IPNS_6vectorINS_10unique_ptrIN10ChessBoard5PieceENS_14default_deleteIS4_EEEENS_9allocatorIS7_EEEEEEEppB7v160006Ev, symObjAddr: 0x3658, symBinAddr: 0x100005BA0, symSize: 0x30 }
  - { offsetInCU: 0x1CDFE, offset: 0x1CDFE, size: 0x8, addend: 0x0, symName: __ZNKSt3__116reverse_iteratorINS0_IPNS_6vectorINS_10unique_ptrIN10ChessBoard5PieceENS_14default_deleteIS4_EEEENS_9allocatorIS7_EEEEEEE4baseB7v160006Ev, symObjAddr: 0x3688, symBinAddr: 0x100005BD0, symSize: 0x24 }
  - { offsetInCU: 0x1CE24, offset: 0x1CE24, size: 0x8, addend: 0x0, symName: __ZNSt3__19allocatorINS_6vectorINS_10unique_ptrIN10ChessBoard5PieceENS_14default_deleteIS4_EEEENS0_IS7_EEEEE7destroyB7v160006EPS9_, symObjAddr: 0x36AC, symBinAddr: 0x100005BF4, symSize: 0x28 }
  - { offsetInCU: 0x1CE58, offset: 0x1CE58, size: 0x8, addend: 0x0, symName: __ZNSt3__16vectorINS_10unique_ptrIN10ChessBoard5PieceENS_14default_deleteIS3_EEEENS_9allocatorIS6_EEED1B7v160006Ev, symObjAddr: 0x36D4, symBinAddr: 0x100005C1C, symSize: 0x2C }
  - { offsetInCU: 0x1CE82, offset: 0x1CE82, size: 0x8, addend: 0x0, symName: __ZNSt3__16vectorINS_10unique_ptrIN10ChessBoard5PieceENS_14default_deleteIS3_EEEENS_9allocatorIS6_EEED2B7v160006Ev, symObjAddr: 0x3700, symBinAddr: 0x100005C48, symSize: 0x44 }
  - { offsetInCU: 0x1CEAC, offset: 0x1CEAC, size: 0x8, addend: 0x0, symName: __ZNSt3__16vectorINS_10unique_ptrIN10ChessBoard5PieceENS_14default_deleteIS3_EEEENS_9allocatorIS6_EEE16__destroy_vectorC1ERS9_, symObjAddr: 0x3744, symBinAddr: 0x100005C8C, symSize: 0x34 }
  - { offsetInCU: 0x1CEE5, offset: 0x1CEE5, size: 0x8, addend: 0x0, symName: __ZNSt3__16vectorINS_10unique_ptrIN10ChessBoard5PieceENS_14default_deleteIS3_EEEENS_9allocatorIS6_EEE16__destroy_vectorclB7v160006Ev, symObjAddr: 0x3778, symBinAddr: 0x100005CC0, symSize: 0x9C }
  - { offsetInCU: 0x1CF0B, offset: 0x1CF0B, size: 0x8, addend: 0x0, symName: __ZNSt3__16vectorINS_10unique_ptrIN10ChessBoard5PieceENS_14default_deleteIS3_EEEENS_9allocatorIS6_EEE16__destroy_vectorC2ERS9_, symObjAddr: 0x3814, symBinAddr: 0x100005D5C, symSize: 0x20 }
  - { offsetInCU: 0x1CF44, offset: 0x1CF44, size: 0x8, addend: 0x0, symName: __ZNKSt3__16vectorINS_10unique_ptrIN10ChessBoard5PieceENS_14default_deleteIS3_EEEENS_9allocatorIS6_EEE17__annotate_deleteB7v160006Ev, symObjAddr: 0x3834, symBinAddr: 0x100005D7C, symSize: 0xB8 }
  - { offsetInCU: 0x1CF6A, offset: 0x1CF6A, size: 0x8, addend: 0x0, symName: __ZNSt3__16vectorINS_10unique_ptrIN10ChessBoard5PieceENS_14default_deleteIS3_EEEENS_9allocatorIS6_EEE7__clearB7v160006Ev, symObjAddr: 0x38FC, symBinAddr: 0x100005E44, symSize: 0x28 }
  - { offsetInCU: 0x1CF90, offset: 0x1CF90, size: 0x8, addend: 0x0, symName: __ZNSt3__116allocator_traitsINS_9allocatorINS_10unique_ptrIN10ChessBoard5PieceENS_14default_deleteIS4_EEEEEEE10deallocateB7v160006ERS8_PS7_m, symObjAddr: 0x3924, symBinAddr: 0x100005E6C, symSize: 0x34 }
  - { offsetInCU: 0x1CFD2, offset: 0x1CFD2, size: 0x8, addend: 0x0, symName: __ZNKSt3__16vectorINS_10unique_ptrIN10ChessBoard5PieceENS_14default_deleteIS3_EEEENS_9allocatorIS6_EEE8capacityB7v160006Ev, symObjAddr: 0x3958, symBinAddr: 0x100005EA0, symSize: 0x40 }
  - { offsetInCU: 0x1CFF8, offset: 0x1CFF8, size: 0x8, addend: 0x0, symName: __ZNKSt3__16vectorINS_10unique_ptrIN10ChessBoard5PieceENS_14default_deleteIS3_EEEENS_9allocatorIS6_EEE31__annotate_contiguous_containerB7v160006EPKvSB_SB_SB_, symObjAddr: 0x3998, symBinAddr: 0x100005EE0, symSize: 0x20 }
  - { offsetInCU: 0x1D04E, offset: 0x1D04E, size: 0x8, addend: 0x0, symName: __ZNKSt3__16vectorINS_10unique_ptrIN10ChessBoard5PieceENS_14default_deleteIS3_EEEENS_9allocatorIS6_EEE4dataB7v160006Ev, symObjAddr: 0x39B8, symBinAddr: 0x100005F00, symSize: 0x28 }
  - { offsetInCU: 0x1D074, offset: 0x1D074, size: 0x8, addend: 0x0, symName: __ZNKSt3__16vectorINS_10unique_ptrIN10ChessBoard5PieceENS_14default_deleteIS3_EEEENS_9allocatorIS6_EEE4sizeB7v160006Ev, symObjAddr: 0x39E0, symBinAddr: 0x100005F28, symSize: 0x28 }
  - { offsetInCU: 0x1D09A, offset: 0x1D09A, size: 0x8, addend: 0x0, symName: __ZNSt3__16vectorINS_10unique_ptrIN10ChessBoard5PieceENS_14default_deleteIS3_EEEENS_9allocatorIS6_EEE22__base_destruct_at_endB7v160006EPS6_, symObjAddr: 0x3A1C, symBinAddr: 0x100005F64, symSize: 0x8C }
  - { offsetInCU: 0x1D0DE, offset: 0x1D0DE, size: 0x8, addend: 0x0, symName: __ZNSt3__116allocator_traitsINS_9allocatorINS_10unique_ptrIN10ChessBoard5PieceENS_14default_deleteIS4_EEEEEEE7destroyB7v160006IS7_vEEvRS8_PT_, symObjAddr: 0x3AA8, symBinAddr: 0x100005FF0, symSize: 0x2C }
  - { offsetInCU: 0x1D11B, offset: 0x1D11B, size: 0x8, addend: 0x0, symName: __ZNSt3__19allocatorINS_10unique_ptrIN10ChessBoard5PieceENS_14default_deleteIS3_EEEEE7destroyB7v160006EPS6_, symObjAddr: 0x3AD4, symBinAddr: 0x10000601C, symSize: 0x28 }
  - { offsetInCU: 0x1D14F, offset: 0x1D14F, size: 0x8, addend: 0x0, symName: __ZNSt3__110unique_ptrIN10ChessBoard5PieceENS_14default_deleteIS2_EEED1B7v160006Ev, symObjAddr: 0x3AFC, symBinAddr: 0x100006044, symSize: 0x2C }
  - { offsetInCU: 0x1D179, offset: 0x1D179, size: 0x8, addend: 0x0, symName: __ZNSt3__110unique_ptrIN10ChessBoard5PieceENS_14default_deleteIS2_EEED2B7v160006Ev, symObjAddr: 0x3B28, symBinAddr: 0x100006070, symSize: 0x30 }
  - { offsetInCU: 0x1D1A3, offset: 0x1D1A3, size: 0x8, addend: 0x0, symName: __ZNSt3__110unique_ptrIN10ChessBoard5PieceENS_14default_deleteIS2_EEE5resetB7v160006EPS2_, symObjAddr: 0x3B58, symBinAddr: 0x1000060A0, symSize: 0x78 }
  - { offsetInCU: 0x1D1E7, offset: 0x1D1E7, size: 0x8, addend: 0x0, symName: __ZNSt3__117__compressed_pairIPN10ChessBoard5PieceENS_14default_deleteIS2_EEE5firstB7v160006Ev, symObjAddr: 0x3BD0, symBinAddr: 0x100006118, symSize: 0x24 }
  - { offsetInCU: 0x1D20D, offset: 0x1D20D, size: 0x8, addend: 0x0, symName: __ZNSt3__117__compressed_pairIPN10ChessBoard5PieceENS_14default_deleteIS2_EEE6secondB7v160006Ev, symObjAddr: 0x3BF4, symBinAddr: 0x10000613C, symSize: 0x24 }
  - { offsetInCU: 0x1D233, offset: 0x1D233, size: 0x8, addend: 0x0, symName: __ZNKSt3__114default_deleteIN10ChessBoard5PieceEEclB7v160006EPS2_, symObjAddr: 0x3C18, symBinAddr: 0x100006160, symSize: 0x4C }
  - { offsetInCU: 0x1D267, offset: 0x1D267, size: 0x8, addend: 0x0, symName: __ZNSt3__122__compressed_pair_elemIPN10ChessBoard5PieceELi0ELb0EE5__getB7v160006Ev, symObjAddr: 0x3C64, symBinAddr: 0x1000061AC, symSize: 0x14 }
  - { offsetInCU: 0x1D28D, offset: 0x1D28D, size: 0x8, addend: 0x0, symName: __ZNSt3__122__compressed_pair_elemINS_14default_deleteIN10ChessBoard5PieceEEELi1ELb1EE5__getB7v160006Ev, symObjAddr: 0x3C78, symBinAddr: 0x1000061C0, symSize: 0x14 }
  - { offsetInCU: 0x1D2B3, offset: 0x1D2B3, size: 0x8, addend: 0x0, symName: __ZNSt3__19allocatorINS_10unique_ptrIN10ChessBoard5PieceENS_14default_deleteIS3_EEEEE10deallocateB7v160006EPS6_m, symObjAddr: 0x3C8C, symBinAddr: 0x1000061D4, symSize: 0x40 }
  - { offsetInCU: 0x1D2F5, offset: 0x1D2F5, size: 0x8, addend: 0x0, symName: __ZNKSt3__16vectorINS_10unique_ptrIN10ChessBoard5PieceENS_14default_deleteIS3_EEEENS_9allocatorIS6_EEE9__end_capB7v160006Ev, symObjAddr: 0x3D48, symBinAddr: 0x100006290, symSize: 0x28 }
  - { offsetInCU: 0x1D31B, offset: 0x1D31B, size: 0x8, addend: 0x0, symName: __ZNKSt3__117__compressed_pairIPNS_10unique_ptrIN10ChessBoard5PieceENS_14default_deleteIS3_EEEENS_9allocatorIS6_EEE5firstB7v160006Ev, symObjAddr: 0x3D70, symBinAddr: 0x1000062B8, symSize: 0x24 }
  - { offsetInCU: 0x1D341, offset: 0x1D341, size: 0x8, addend: 0x0, symName: __ZNKSt3__122__compressed_pair_elemIPNS_10unique_ptrIN10ChessBoard5PieceENS_14default_deleteIS3_EEEELi0ELb0EE5__getB7v160006Ev, symObjAddr: 0x3D94, symBinAddr: 0x1000062DC, symSize: 0x14 }
  - { offsetInCU: 0x1D36C, offset: 0x1D36C, size: 0x8, addend: 0x0, symName: __ZNSt3__119__to_address_helperINS_16reverse_iteratorINS1_IPNS_6vectorINS_10unique_ptrIN10ChessBoard5PieceENS_14default_deleteIS5_EEEENS_9allocatorIS8_EEEEEEEEvE6__callB7v160006ERKSE_, symObjAddr: 0x3DA8, symBinAddr: 0x1000062F0, symSize: 0x38 }
  - { offsetInCU: 0x1D38F, offset: 0x1D38F, size: 0x8, addend: 0x0, symName: __ZNKSt3__116reverse_iteratorINS0_IPNS_6vectorINS_10unique_ptrIN10ChessBoard5PieceENS_14default_deleteIS4_EEEENS_9allocatorIS7_EEEEEEEptB7v160006Ev, symObjAddr: 0x3DE0, symBinAddr: 0x100006328, symSize: 0x24 }
  - { offsetInCU: 0x1D3B5, offset: 0x1D3B5, size: 0x8, addend: 0x0, symName: __ZNKSt3__116reverse_iteratorINS0_IPNS_6vectorINS_10unique_ptrIN10ChessBoard5PieceENS_14default_deleteIS4_EEEENS_9allocatorIS7_EEEEEEEdeB7v160006Ev, symObjAddr: 0x3E04, symBinAddr: 0x10000634C, symSize: 0x34 }
  - { offsetInCU: 0x1D3E9, offset: 0x1D3E9, size: 0x8, addend: 0x0, symName: __ZNSt3__116reverse_iteratorIPNS_6vectorINS_10unique_ptrIN10ChessBoard5PieceENS_14default_deleteIS4_EEEENS_9allocatorIS7_EEEEEmmB7v160006Ev, symObjAddr: 0x3E38, symBinAddr: 0x100006380, symSize: 0x20 }
  - { offsetInCU: 0x1D40F, offset: 0x1D40F, size: 0x8, addend: 0x0, symName: __ZNSt3__116reverse_iteratorINS0_IPNS_6vectorINS_10unique_ptrIN10ChessBoard5PieceENS_14default_deleteIS4_EEEENS_9allocatorIS7_EEEEEEEC2B7v160006ESC_, symObjAddr: 0x3E58, symBinAddr: 0x1000063A0, symSize: 0x2C }
  - { offsetInCU: 0x1D447, offset: 0x1D447, size: 0x8, addend: 0x0, symName: __ZNSt3__116reverse_iteratorIPNS_6vectorINS_10unique_ptrIN10ChessBoard5PieceENS_14default_deleteIS4_EEEENS_9allocatorIS7_EEEEEC2B7v160006ESB_, symObjAddr: 0x3E84, symBinAddr: 0x1000063CC, symSize: 0x28 }
  - { offsetInCU: 0x1D47F, offset: 0x1D47F, size: 0x8, addend: 0x0, symName: __ZNSt3__114__split_bufferINS_6vectorINS_10unique_ptrIN10ChessBoard5PieceENS_14default_deleteIS4_EEEENS_9allocatorIS7_EEEERNS8_ISA_EEED2Ev, symObjAddr: 0x3EAC, symBinAddr: 0x1000063F4, symSize: 0x8C }
  - { offsetInCU: 0x1D4AB, offset: 0x1D4AB, size: 0x8, addend: 0x0, symName: __ZNSt3__114__split_bufferINS_6vectorINS_10unique_ptrIN10ChessBoard5PieceENS_14default_deleteIS4_EEEENS_9allocatorIS7_EEEERNS8_ISA_EEE5clearB7v160006Ev, symObjAddr: 0x3F38, symBinAddr: 0x100006480, symSize: 0x28 }
  - { offsetInCU: 0x1D4D1, offset: 0x1D4D1, size: 0x8, addend: 0x0, symName: __ZNSt3__116allocator_traitsINS_9allocatorINS_6vectorINS_10unique_ptrIN10ChessBoard5PieceENS_14default_deleteIS5_EEEENS1_IS8_EEEEEEE10deallocateB7v160006ERSB_PSA_m, symObjAddr: 0x3F60, symBinAddr: 0x1000064A8, symSize: 0x34 }
  - { offsetInCU: 0x1D513, offset: 0x1D513, size: 0x8, addend: 0x0, symName: __ZNKSt3__114__split_bufferINS_6vectorINS_10unique_ptrIN10ChessBoard5PieceENS_14default_deleteIS4_EEEENS_9allocatorIS7_EEEERNS8_ISA_EEE8capacityB7v160006Ev, symObjAddr: 0x3F94, symBinAddr: 0x1000064DC, symSize: 0x40 }
  - { offsetInCU: 0x1D539, offset: 0x1D539, size: 0x8, addend: 0x0, symName: __ZNSt3__114__split_bufferINS_6vectorINS_10unique_ptrIN10ChessBoard5PieceENS_14default_deleteIS4_EEEENS_9allocatorIS7_EEEERNS8_ISA_EEE17__destruct_at_endB7v160006EPSA_, symObjAddr: 0x3FD4, symBinAddr: 0x10000651C, symSize: 0x2C }
  - { offsetInCU: 0x1D56D, offset: 0x1D56D, size: 0x8, addend: 0x0, symName: __ZNSt3__114__split_bufferINS_6vectorINS_10unique_ptrIN10ChessBoard5PieceENS_14default_deleteIS4_EEEENS_9allocatorIS7_EEEERNS8_ISA_EEE17__destruct_at_endB7v160006EPSA_NS_17integral_constantIbLb0EEE, symObjAddr: 0x4000, symBinAddr: 0x100006548, symSize: 0x80 }
  - { offsetInCU: 0x1D5AD, offset: 0x1D5AD, size: 0x8, addend: 0x0, symName: __ZNSt3__19allocatorINS_6vectorINS_10unique_ptrIN10ChessBoard5PieceENS_14default_deleteIS4_EEEENS0_IS7_EEEEE10deallocateB7v160006EPS9_m, symObjAddr: 0x4080, symBinAddr: 0x1000065C8, symSize: 0x44 }
  - { offsetInCU: 0x1D5EF, offset: 0x1D5EF, size: 0x8, addend: 0x0, symName: __ZNKSt3__114__split_bufferINS_6vectorINS_10unique_ptrIN10ChessBoard5PieceENS_14default_deleteIS4_EEEENS_9allocatorIS7_EEEERNS8_ISA_EEE9__end_capB7v160006Ev, symObjAddr: 0x40C4, symBinAddr: 0x10000660C, symSize: 0x28 }
  - { offsetInCU: 0x1D615, offset: 0x1D615, size: 0x8, addend: 0x0, symName: __ZNKSt3__117__compressed_pairIPNS_6vectorINS_10unique_ptrIN10ChessBoard5PieceENS_14default_deleteIS4_EEEENS_9allocatorIS7_EEEERNS8_ISA_EEE5firstB7v160006Ev, symObjAddr: 0x40EC, symBinAddr: 0x100006634, symSize: 0x24 }
  - { offsetInCU: 0x1D63B, offset: 0x1D63B, size: 0x8, addend: 0x0, symName: __ZNSt3__16vectorINS0_INS_10unique_ptrIN10ChessBoard5PieceENS_14default_deleteIS3_EEEENS_9allocatorIS6_EEEENS7_IS9_EEE27__invalidate_iterators_pastB7v160006EPS9_, symObjAddr: 0x4110, symBinAddr: 0x100006658, symSize: 0x14 }
  - { offsetInCU: 0x1D672, offset: 0x1D672, size: 0x8, addend: 0x0, symName: __ZNSt3__16vectorINS0_INS_10unique_ptrIN10ChessBoard5PieceENS_14default_deleteIS3_EEEENS_9allocatorIS6_EEEENS7_IS9_EEE22__base_destruct_at_endB7v160006EPS9_, symObjAddr: 0x4124, symBinAddr: 0x10000666C, symSize: 0x8C }
  - { offsetInCU: 0x1D6B6, offset: 0x1D6B6, size: 0x8, addend: 0x0, symName: __ZNKSt3__16vectorINS0_INS_10unique_ptrIN10ChessBoard5PieceENS_14default_deleteIS3_EEEENS_9allocatorIS6_EEEENS7_IS9_EEE17__annotate_shrinkB7v160006Em, symObjAddr: 0x41B0, symBinAddr: 0x1000066F8, symSize: 0xD0 }
  - { offsetInCU: 0x1D6EB, offset: 0x1D6EB, size: 0x8, addend: 0x0, symName: __ZNSt3__16vectorINS0_INS_10unique_ptrIN10ChessBoard5PieceENS_14default_deleteIS3_EEEENS_9allocatorIS6_EEEENS7_IS9_EEE11__make_iterB7v160006EPS9_, symObjAddr: 0x4280, symBinAddr: 0x1000067C8, symSize: 0x34 }
  - { offsetInCU: 0x1D720, offset: 0x1D720, size: 0x8, addend: 0x0, symName: __ZNSt3__111__wrap_iterIPNS_6vectorINS_10unique_ptrIN10ChessBoard5PieceENS_14default_deleteIS4_EEEENS_9allocatorIS7_EEEEEC1B7v160006EPKvSB_, symObjAddr: 0x42B4, symBinAddr: 0x1000067FC, symSize: 0x3C }
  - { offsetInCU: 0x1D766, offset: 0x1D766, size: 0x8, addend: 0x0, symName: __ZNSt3__111__wrap_iterIPNS_6vectorINS_10unique_ptrIN10ChessBoard5PieceENS_14default_deleteIS4_EEEENS_9allocatorIS7_EEEEEC2B7v160006EPKvSB_, symObjAddr: 0x42F0, symBinAddr: 0x100006838, symSize: 0x24 }
  - { offsetInCU: 0x1D7AC, offset: 0x1D7AC, size: 0x8, addend: 0x0, symName: __ZNKSt3__111__wrap_iterIPNS_6vectorINS_10unique_ptrIN10ChessBoard5PieceENS_14default_deleteIS4_EEEENS_9allocatorIS7_EEEEE4baseB7v160006Ev, symObjAddr: 0x435C, symBinAddr: 0x1000068A4, symSize: 0x18 }
  - { offsetInCU: 0x1D7D2, offset: 0x1D7D2, size: 0x8, addend: 0x0, symName: __ZNSt3__16vectorINS_10unique_ptrIN10ChessBoard5PieceENS_14default_deleteIS3_EEEENS_9allocatorIS6_EEE8__appendEm, symObjAddr: 0x4374, symBinAddr: 0x1000068BC, symSize: 0x108 }
  - { offsetInCU: 0x1D82D, offset: 0x1D82D, size: 0x8, addend: 0x0, symName: __ZNSt3__16vectorINS_10unique_ptrIN10ChessBoard5PieceENS_14default_deleteIS3_EEEENS_9allocatorIS6_EEE17__destruct_at_endB7v160006EPS6_, symObjAddr: 0x447C, symBinAddr: 0x1000069C4, symSize: 0x60 }
  - { offsetInCU: 0x1D871, offset: 0x1D871, size: 0x8, addend: 0x0, symName: __ZNSt3__16vectorINS_10unique_ptrIN10ChessBoard5PieceENS_14default_deleteIS3_EEEENS_9allocatorIS6_EEE18__construct_at_endEm, symObjAddr: 0x44DC, symBinAddr: 0x100006A24, symSize: 0xC8 }
  - { offsetInCU: 0x1D8E4, offset: 0x1D8E4, size: 0x8, addend: 0x0, symName: __ZNKSt3__16vectorINS_10unique_ptrIN10ChessBoard5PieceENS_14default_deleteIS3_EEEENS_9allocatorIS6_EEE11__recommendB7v160006Em, symObjAddr: 0x45A4, symBinAddr: 0x100006AEC, symSize: 0xB4 }
  - { offsetInCU: 0x1D939, offset: 0x1D939, size: 0x8, addend: 0x0, symName: __ZNSt3__114__split_bufferINS_10unique_ptrIN10ChessBoard5PieceENS_14default_deleteIS3_EEEERNS_9allocatorIS6_EEEC1EmmS9_, symObjAddr: 0x4658, symBinAddr: 0x100006BA0, symSize: 0x44 }
  - { offsetInCU: 0x1D98F, offset: 0x1D98F, size: 0x8, addend: 0x0, symName: __ZNSt3__114__split_bufferINS_10unique_ptrIN10ChessBoard5PieceENS_14default_deleteIS3_EEEERNS_9allocatorIS6_EEE18__construct_at_endEm, symObjAddr: 0x469C, symBinAddr: 0x100006BE4, symSize: 0xB4 }
  - { offsetInCU: 0x1D9D2, offset: 0x1D9D2, size: 0x8, addend: 0x0, symName: __ZNSt3__114__split_bufferINS_10unique_ptrIN10ChessBoard5PieceENS_14default_deleteIS3_EEEERNS_9allocatorIS6_EEED1Ev, symObjAddr: 0x4868, symBinAddr: 0x100006DB0, symSize: 0x2C }
  - { offsetInCU: 0x1DA17, offset: 0x1DA17, size: 0x8, addend: 0x0, symName: __ZNSt3__16vectorINS_10unique_ptrIN10ChessBoard5PieceENS_14default_deleteIS3_EEEENS_9allocatorIS6_EEE21_ConstructTransactionC1B7v160006ERS9_m, symObjAddr: 0x4894, symBinAddr: 0x100006DDC, symSize: 0x3C }
  - { offsetInCU: 0x1DA5F, offset: 0x1DA5F, size: 0x8, addend: 0x0, symName: __ZNSt3__116allocator_traitsINS_9allocatorINS_10unique_ptrIN10ChessBoard5PieceENS_14default_deleteIS4_EEEEEEE9constructB7v160006IS7_JEvEEvRS8_PT_DpOT0_, symObjAddr: 0x48D0, symBinAddr: 0x100006E18, symSize: 0x2C }
  - { offsetInCU: 0x1DAA1, offset: 0x1DAA1, size: 0x8, addend: 0x0, symName: __ZNSt3__16vectorINS_10unique_ptrIN10ChessBoard5PieceENS_14default_deleteIS3_EEEENS_9allocatorIS6_EEE21_ConstructTransactionD1B7v160006Ev, symObjAddr: 0x48FC, symBinAddr: 0x100006E44, symSize: 0x2C }
  - { offsetInCU: 0x1DACB, offset: 0x1DACB, size: 0x8, addend: 0x0, symName: __ZNSt3__16vectorINS_10unique_ptrIN10ChessBoard5PieceENS_14default_deleteIS3_EEEENS_9allocatorIS6_EEE21_ConstructTransactionC2B7v160006ERS9_m, symObjAddr: 0x4928, symBinAddr: 0x100006E70, symSize: 0x44 }
  - { offsetInCU: 0x1DB13, offset: 0x1DB13, size: 0x8, addend: 0x0, symName: __ZNSt3__19allocatorINS_10unique_ptrIN10ChessBoard5PieceENS_14default_deleteIS3_EEEEE9constructB7v160006IS6_JEEEvPT_DpOT0_, symObjAddr: 0x496C, symBinAddr: 0x100006EB4, symSize: 0x28 }
  - { offsetInCU: 0x1DB55, offset: 0x1DB55, size: 0x8, addend: 0x0, symName: __ZNSt3__110unique_ptrIN10ChessBoard5PieceENS_14default_deleteIS2_EEEC1B7v160006ILb1EvEEv, symObjAddr: 0x4994, symBinAddr: 0x100006EDC, symSize: 0x2C }
  - { offsetInCU: 0x1DB8A, offset: 0x1DB8A, size: 0x8, addend: 0x0, symName: __ZNSt3__110unique_ptrIN10ChessBoard5PieceENS_14default_deleteIS2_EEEC2B7v160006ILb1EvEEv, symObjAddr: 0x49C0, symBinAddr: 0x100006F08, symSize: 0x3C }
  - { offsetInCU: 0x1DBC5, offset: 0x1DBC5, size: 0x8, addend: 0x0, symName: __ZNSt3__117__compressed_pairIPN10ChessBoard5PieceENS_14default_deleteIS2_EEEC1B7v160006INS_16__value_init_tagES8_EEOT_OT0_, symObjAddr: 0x49FC, symBinAddr: 0x100006F44, symSize: 0x3C }
  - { offsetInCU: 0x1DC1D, offset: 0x1DC1D, size: 0x8, addend: 0x0, symName: __ZNSt3__117__compressed_pairIPN10ChessBoard5PieceENS_14default_deleteIS2_EEEC2B7v160006INS_16__value_init_tagES8_EEOT_OT0_, symObjAddr: 0x4A38, symBinAddr: 0x100006F80, symSize: 0x3C }
  - { offsetInCU: 0x1DC75, offset: 0x1DC75, size: 0x8, addend: 0x0, symName: __ZNSt3__122__compressed_pair_elemIPN10ChessBoard5PieceELi0ELb0EEC2B7v160006ENS_16__value_init_tagE, symObjAddr: 0x4A74, symBinAddr: 0x100006FBC, symSize: 0x18 }
  - { offsetInCU: 0x1DCA9, offset: 0x1DCA9, size: 0x8, addend: 0x0, symName: __ZNSt3__122__compressed_pair_elemINS_14default_deleteIN10ChessBoard5PieceEEELi1ELb1EEC2B7v160006ENS_16__value_init_tagE, symObjAddr: 0x4A8C, symBinAddr: 0x100006FD4, symSize: 0x14 }
  - { offsetInCU: 0x1DCDD, offset: 0x1DCDD, size: 0x8, addend: 0x0, symName: __ZNSt3__16vectorINS_10unique_ptrIN10ChessBoard5PieceENS_14default_deleteIS3_EEEENS_9allocatorIS6_EEE21_ConstructTransactionD2B7v160006Ev, symObjAddr: 0x4AA0, symBinAddr: 0x100006FE8, symSize: 0x20 }
  - { offsetInCU: 0x1DD07, offset: 0x1DD07, size: 0x8, addend: 0x0, symName: __ZNKSt3__16vectorINS_10unique_ptrIN10ChessBoard5PieceENS_14default_deleteIS3_EEEENS_9allocatorIS6_EEE8max_sizeEv, symObjAddr: 0x4AC0, symBinAddr: 0x100007008, symSize: 0x60 }
  - { offsetInCU: 0x1DD2F, offset: 0x1DD2F, size: 0x8, addend: 0x0, symName: __ZNKSt3__16vectorINS_10unique_ptrIN10ChessBoard5PieceENS_14default_deleteIS3_EEEENS_9allocatorIS6_EEE20__throw_length_errorB7v160006Ev, symObjAddr: 0x4B20, symBinAddr: 0x100007068, symSize: 0x1C }
  - { offsetInCU: 0x1DD5F, offset: 0x1DD5F, size: 0x8, addend: 0x0, symName: __ZNSt3__116allocator_traitsINS_9allocatorINS_10unique_ptrIN10ChessBoard5PieceENS_14default_deleteIS4_EEEEEEE8max_sizeB7v160006IS8_vEEmRKS8_, symObjAddr: 0x4B3C, symBinAddr: 0x100007084, symSize: 0x24 }
  - { offsetInCU: 0x1DD8D, offset: 0x1DD8D, size: 0x8, addend: 0x0, symName: __ZNKSt3__16vectorINS_10unique_ptrIN10ChessBoard5PieceENS_14default_deleteIS3_EEEENS_9allocatorIS6_EEE7__allocB7v160006Ev, symObjAddr: 0x4B60, symBinAddr: 0x1000070A8, symSize: 0x28 }
  - { offsetInCU: 0x1DDB3, offset: 0x1DDB3, size: 0x8, addend: 0x0, symName: __ZNKSt3__19allocatorINS_10unique_ptrIN10ChessBoard5PieceENS_14default_deleteIS3_EEEEE8max_sizeB7v160006Ev, symObjAddr: 0x4B88, symBinAddr: 0x1000070D0, symSize: 0x14 }
  - { offsetInCU: 0x1DDD9, offset: 0x1DDD9, size: 0x8, addend: 0x0, symName: __ZNKSt3__117__compressed_pairIPNS_10unique_ptrIN10ChessBoard5PieceENS_14default_deleteIS3_EEEENS_9allocatorIS6_EEE6secondB7v160006Ev, symObjAddr: 0x4B9C, symBinAddr: 0x1000070E4, symSize: 0x24 }
  - { offsetInCU: 0x1DDFF, offset: 0x1DDFF, size: 0x8, addend: 0x0, symName: __ZNKSt3__122__compressed_pair_elemINS_9allocatorINS_10unique_ptrIN10ChessBoard5PieceENS_14default_deleteIS4_EEEEEELi1ELb1EE5__getB7v160006Ev, symObjAddr: 0x4BC0, symBinAddr: 0x100007108, symSize: 0x14 }
  - { offsetInCU: 0x1DE25, offset: 0x1DE25, size: 0x8, addend: 0x0, symName: __ZNSt3__114__split_bufferINS_10unique_ptrIN10ChessBoard5PieceENS_14default_deleteIS3_EEEERNS_9allocatorIS6_EEEC2EmmS9_, symObjAddr: 0x4BD4, symBinAddr: 0x10000711C, symSize: 0xD4 }
  - { offsetInCU: 0x1DE99, offset: 0x1DE99, size: 0x8, addend: 0x0, symName: __ZNSt3__117__compressed_pairIPNS_10unique_ptrIN10ChessBoard5PieceENS_14default_deleteIS3_EEEERNS_9allocatorIS6_EEEC1B7v160006IDnSA_EEOT_OT0_, symObjAddr: 0x4CA8, symBinAddr: 0x1000071F0, symSize: 0x3C }
  - { offsetInCU: 0x1DEF1, offset: 0x1DEF1, size: 0x8, addend: 0x0, symName: __ZNSt3__114__split_bufferINS_10unique_ptrIN10ChessBoard5PieceENS_14default_deleteIS3_EEEERNS_9allocatorIS6_EEE7__allocB7v160006Ev, symObjAddr: 0x4D24, symBinAddr: 0x10000726C, symSize: 0x28 }
  - { offsetInCU: 0x1DF17, offset: 0x1DF17, size: 0x8, addend: 0x0, symName: __ZNSt3__114__split_bufferINS_10unique_ptrIN10ChessBoard5PieceENS_14default_deleteIS3_EEEERNS_9allocatorIS6_EEE9__end_capB7v160006Ev, symObjAddr: 0x4D4C, symBinAddr: 0x100007294, symSize: 0x28 }
  - { offsetInCU: 0x1DF3D, offset: 0x1DF3D, size: 0x8, addend: 0x0, symName: __ZNSt3__117__compressed_pairIPNS_10unique_ptrIN10ChessBoard5PieceENS_14default_deleteIS3_EEEERNS_9allocatorIS6_EEEC2B7v160006IDnSA_EEOT_OT0_, symObjAddr: 0x4D74, symBinAddr: 0x1000072BC, symSize: 0x48 }
  - { offsetInCU: 0x1DF95, offset: 0x1DF95, size: 0x8, addend: 0x0, symName: __ZNSt3__122__compressed_pair_elemIRNS_9allocatorINS_10unique_ptrIN10ChessBoard5PieceENS_14default_deleteIS4_EEEEEELi1ELb0EEC2B7v160006IS9_vEEOT_, symObjAddr: 0x4DBC, symBinAddr: 0x100007304, symSize: 0x20 }
  - { offsetInCU: 0x1DFD7, offset: 0x1DFD7, size: 0x8, addend: 0x0, symName: __ZNSt3__19allocatorINS_10unique_ptrIN10ChessBoard5PieceENS_14default_deleteIS3_EEEEE8allocateB7v160006Em, symObjAddr: 0x4DDC, symBinAddr: 0x100007324, symSize: 0x58 }
  - { offsetInCU: 0x1E00B, offset: 0x1E00B, size: 0x8, addend: 0x0, symName: __ZNSt3__117__compressed_pairIPNS_10unique_ptrIN10ChessBoard5PieceENS_14default_deleteIS3_EEEERNS_9allocatorIS6_EEE6secondB7v160006Ev, symObjAddr: 0x4E34, symBinAddr: 0x10000737C, symSize: 0x28 }
  - { offsetInCU: 0x1E031, offset: 0x1E031, size: 0x8, addend: 0x0, symName: __ZNSt3__122__compressed_pair_elemIRNS_9allocatorINS_10unique_ptrIN10ChessBoard5PieceENS_14default_deleteIS4_EEEEEELi1ELb0EE5__getB7v160006Ev, symObjAddr: 0x4E5C, symBinAddr: 0x1000073A4, symSize: 0x18 }
  - { offsetInCU: 0x1E057, offset: 0x1E057, size: 0x8, addend: 0x0, symName: __ZNSt3__117__compressed_pairIPNS_10unique_ptrIN10ChessBoard5PieceENS_14default_deleteIS3_EEEERNS_9allocatorIS6_EEE5firstB7v160006Ev, symObjAddr: 0x4E74, symBinAddr: 0x1000073BC, symSize: 0x24 }
  - { offsetInCU: 0x1E087, offset: 0x1E087, size: 0x8, addend: 0x0, symName: __ZNSt3__114__split_bufferINS_10unique_ptrIN10ChessBoard5PieceENS_14default_deleteIS3_EEEERNS_9allocatorIS6_EEE21_ConstructTransactionC1B7v160006EPPS6_m, symObjAddr: 0x4E98, symBinAddr: 0x1000073E0, symSize: 0x3C }
  - { offsetInCU: 0x1E0CD, offset: 0x1E0CD, size: 0x8, addend: 0x0, symName: __ZNSt3__114__split_bufferINS_10unique_ptrIN10ChessBoard5PieceENS_14default_deleteIS3_EEEERNS_9allocatorIS6_EEE21_ConstructTransactionD1B7v160006Ev, symObjAddr: 0x4ED4, symBinAddr: 0x10000741C, symSize: 0x2C }
  - { offsetInCU: 0x1E0F7, offset: 0x1E0F7, size: 0x8, addend: 0x0, symName: __ZNSt3__114__split_bufferINS_10unique_ptrIN10ChessBoard5PieceENS_14default_deleteIS3_EEEERNS_9allocatorIS6_EEE21_ConstructTransactionC2B7v160006EPPS6_m, symObjAddr: 0x4F00, symBinAddr: 0x100007448, symSize: 0x44 }
  - { offsetInCU: 0x1E13D, offset: 0x1E13D, size: 0x8, addend: 0x0, symName: __ZNSt3__114__split_bufferINS_10unique_ptrIN10ChessBoard5PieceENS_14default_deleteIS3_EEEERNS_9allocatorIS6_EEE21_ConstructTransactionD2B7v160006Ev, symObjAddr: 0x4F44, symBinAddr: 0x10000748C, symSize: 0x20 }
  - { offsetInCU: 0x1E167, offset: 0x1E167, size: 0x8, addend: 0x0, symName: __ZNSt3__116reverse_iteratorIPNS_10unique_ptrIN10ChessBoard5PieceENS_14default_deleteIS3_EEEEEC1B7v160006ES7_, symObjAddr: 0x5090, symBinAddr: 0x1000075D8, symSize: 0x34 }
  - { offsetInCU: 0x1E19F, offset: 0x1E19F, size: 0x8, addend: 0x0, symName: __ZNKSt3__116reverse_iteratorIPNS_10unique_ptrIN10ChessBoard5PieceENS_14default_deleteIS3_EEEEE4baseB7v160006Ev, symObjAddr: 0x50C4, symBinAddr: 0x10000760C, symSize: 0x18 }
  - { offsetInCU: 0x1E1C5, offset: 0x1E1C5, size: 0x8, addend: 0x0, symName: __ZNKSt3__16vectorINS_10unique_ptrIN10ChessBoard5PieceENS_14default_deleteIS3_EEEENS_9allocatorIS6_EEE14__annotate_newB7v160006Em, symObjAddr: 0x5118, symBinAddr: 0x100007660, symSize: 0xAC }
  - { offsetInCU: 0x1E1FA, offset: 0x1E1FA, size: 0x8, addend: 0x0, symName: __ZNSt3__129_AllocatorDestroyRangeReverseINS_9allocatorINS_10unique_ptrIN10ChessBoard5PieceENS_14default_deleteIS4_EEEEEENS_16reverse_iteratorIPS7_EEEC1B7v160006ERS8_RSB_SE_, symObjAddr: 0x5220, symBinAddr: 0x100007768, symSize: 0x44 }
  - { offsetInCU: 0x1E251, offset: 0x1E251, size: 0x8, addend: 0x0, symName: __ZNSt3__116allocator_traitsINS_9allocatorINS_10unique_ptrIN10ChessBoard5PieceENS_14default_deleteIS4_EEEEEEE9constructB7v160006IS7_JS7_EvEEvRS8_PT_DpOT0_, symObjAddr: 0x52AC, symBinAddr: 0x1000077F4, symSize: 0x34 }
  - { offsetInCU: 0x1E2A8, offset: 0x1E2A8, size: 0x8, addend: 0x0, symName: __ZNKSt3__116reverse_iteratorIPNS_10unique_ptrIN10ChessBoard5PieceENS_14default_deleteIS3_EEEEEdeB7v160006Ev, symObjAddr: 0x5304, symBinAddr: 0x10000784C, symSize: 0x28 }
  - { offsetInCU: 0x1E2DC, offset: 0x1E2DC, size: 0x8, addend: 0x0, symName: __ZNSt3__116reverse_iteratorIPNS_10unique_ptrIN10ChessBoard5PieceENS_14default_deleteIS3_EEEEEppB7v160006Ev, symObjAddr: 0x532C, symBinAddr: 0x100007874, symSize: 0x20 }
  - { offsetInCU: 0x1E302, offset: 0x1E302, size: 0x8, addend: 0x0, symName: __ZNSt3__128__exception_guard_exceptionsINS_29_AllocatorDestroyRangeReverseINS_9allocatorINS_10unique_ptrIN10ChessBoard5PieceENS_14default_deleteIS5_EEEEEENS_16reverse_iteratorIPS8_EEEEE10__completeB7v160006Ev, symObjAddr: 0x534C, symBinAddr: 0x100007894, symSize: 0x1C }
  - { offsetInCU: 0x1E328, offset: 0x1E328, size: 0x8, addend: 0x0, symName: __ZNSt3__128__exception_guard_exceptionsINS_29_AllocatorDestroyRangeReverseINS_9allocatorINS_10unique_ptrIN10ChessBoard5PieceENS_14default_deleteIS5_EEEEEENS_16reverse_iteratorIPS8_EEEEED1B7v160006Ev, symObjAddr: 0x5368, symBinAddr: 0x1000078B0, symSize: 0x2C }
  - { offsetInCU: 0x1E352, offset: 0x1E352, size: 0x8, addend: 0x0, symName: __ZNSt3__128__exception_guard_exceptionsINS_29_AllocatorDestroyRangeReverseINS_9allocatorINS_10unique_ptrIN10ChessBoard5PieceENS_14default_deleteIS5_EEEEEENS_16reverse_iteratorIPS8_EEEEEC1B7v160006ESD_, symObjAddr: 0x5394, symBinAddr: 0x1000078DC, symSize: 0x34 }
  - { offsetInCU: 0x1E38B, offset: 0x1E38B, size: 0x8, addend: 0x0, symName: __ZNSt3__128__exception_guard_exceptionsINS_29_AllocatorDestroyRangeReverseINS_9allocatorINS_10unique_ptrIN10ChessBoard5PieceENS_14default_deleteIS5_EEEEEENS_16reverse_iteratorIPS8_EEEEEC2B7v160006ESD_, symObjAddr: 0x53C8, symBinAddr: 0x100007910, symSize: 0x30 }
  - { offsetInCU: 0x1E3C4, offset: 0x1E3C4, size: 0x8, addend: 0x0, symName: __ZNSt3__129_AllocatorDestroyRangeReverseINS_9allocatorINS_10unique_ptrIN10ChessBoard5PieceENS_14default_deleteIS4_EEEEEENS_16reverse_iteratorIPS7_EEEC2B7v160006ERS8_RSB_SE_, symObjAddr: 0x53F8, symBinAddr: 0x100007940, symSize: 0x38 }
  - { offsetInCU: 0x1E41B, offset: 0x1E41B, size: 0x8, addend: 0x0, symName: __ZNSt3__19allocatorINS_10unique_ptrIN10ChessBoard5PieceENS_14default_deleteIS3_EEEEE9constructB7v160006IS6_JS6_EEEvPT_DpOT0_, symObjAddr: 0x5430, symBinAddr: 0x100007978, symSize: 0x30 }
  - { offsetInCU: 0x1E471, offset: 0x1E471, size: 0x8, addend: 0x0, symName: __ZNSt3__110unique_ptrIN10ChessBoard5PieceENS_14default_deleteIS2_EEEC1B7v160006EOS5_, symObjAddr: 0x5460, symBinAddr: 0x1000079A8, symSize: 0x34 }
  - { offsetInCU: 0x1E4A9, offset: 0x1E4A9, size: 0x8, addend: 0x0, symName: __ZNSt3__110unique_ptrIN10ChessBoard5PieceENS_14default_deleteIS2_EEEC2B7v160006EOS5_, symObjAddr: 0x5494, symBinAddr: 0x1000079DC, symSize: 0x60 }
  - { offsetInCU: 0x1E4E1, offset: 0x1E4E1, size: 0x8, addend: 0x0, symName: __ZNSt3__110unique_ptrIN10ChessBoard5PieceENS_14default_deleteIS2_EEE7releaseB7v160006Ev, symObjAddr: 0x54F4, symBinAddr: 0x100007A3C, symSize: 0x44 }
  - { offsetInCU: 0x1E516, offset: 0x1E516, size: 0x8, addend: 0x0, symName: __ZNSt3__110unique_ptrIN10ChessBoard5PieceENS_14default_deleteIS2_EEE11get_deleterB7v160006Ev, symObjAddr: 0x5538, symBinAddr: 0x100007A80, symSize: 0x24 }
  - { offsetInCU: 0x1E548, offset: 0x1E548, size: 0x8, addend: 0x0, symName: __ZNSt3__117__compressed_pairIPN10ChessBoard5PieceENS_14default_deleteIS2_EEEC1B7v160006IS3_S5_EEOT_OT0_, symObjAddr: 0x555C, symBinAddr: 0x100007AA4, symSize: 0x3C }
  - { offsetInCU: 0x1E5A0, offset: 0x1E5A0, size: 0x8, addend: 0x0, symName: __ZNSt3__117__compressed_pairIPN10ChessBoard5PieceENS_14default_deleteIS2_EEEC2B7v160006IS3_S5_EEOT_OT0_, symObjAddr: 0x5598, symBinAddr: 0x100007AE0, symSize: 0x44 }
  - { offsetInCU: 0x1E5F8, offset: 0x1E5F8, size: 0x8, addend: 0x0, symName: __ZNSt3__122__compressed_pair_elemIPN10ChessBoard5PieceELi0ELb0EEC2B7v160006IS3_vEEOT_, symObjAddr: 0x55DC, symBinAddr: 0x100007B24, symSize: 0x24 }
  - { offsetInCU: 0x1E63A, offset: 0x1E63A, size: 0x8, addend: 0x0, symName: __ZNSt3__122__compressed_pair_elemINS_14default_deleteIN10ChessBoard5PieceEEELi1ELb1EEC2B7v160006IS4_vEEOT_, symObjAddr: 0x5600, symBinAddr: 0x100007B48, symSize: 0x18 }
  - { offsetInCU: 0x1E681, offset: 0x1E681, size: 0x8, addend: 0x0, symName: __ZNSt3__119__to_address_helperINS_16reverse_iteratorIPNS_10unique_ptrIN10ChessBoard5PieceENS_14default_deleteIS4_EEEEEEvE6__callB7v160006ERKS9_, symObjAddr: 0x5618, symBinAddr: 0x100007B60, symSize: 0x38 }
  - { offsetInCU: 0x1E6A4, offset: 0x1E6A4, size: 0x8, addend: 0x0, symName: __ZNKSt3__116reverse_iteratorIPNS_10unique_ptrIN10ChessBoard5PieceENS_14default_deleteIS3_EEEEEptB7v160006Ev, symObjAddr: 0x5650, symBinAddr: 0x100007B98, symSize: 0x24 }
  - { offsetInCU: 0x1E6CA, offset: 0x1E6CA, size: 0x8, addend: 0x0, symName: __ZNSt3__128__exception_guard_exceptionsINS_29_AllocatorDestroyRangeReverseINS_9allocatorINS_10unique_ptrIN10ChessBoard5PieceENS_14default_deleteIS5_EEEEEENS_16reverse_iteratorIPS8_EEEEED2B7v160006Ev, symObjAddr: 0x5674, symBinAddr: 0x100007BBC, symSize: 0x50 }
  - { offsetInCU: 0x1E6F4, offset: 0x1E6F4, size: 0x8, addend: 0x0, symName: __ZNKSt3__129_AllocatorDestroyRangeReverseINS_9allocatorINS_10unique_ptrIN10ChessBoard5PieceENS_14default_deleteIS4_EEEEEENS_16reverse_iteratorIPS7_EEEclB7v160006Ev, symObjAddr: 0x56C4, symBinAddr: 0x100007C0C, symSize: 0xB4 }
  - { offsetInCU: 0x1E71B, offset: 0x1E71B, size: 0x8, addend: 0x0, symName: __ZNSt3__116reverse_iteratorINS0_IPNS_10unique_ptrIN10ChessBoard5PieceENS_14default_deleteIS3_EEEEEEEC1B7v160006ES8_, symObjAddr: 0x57E8, symBinAddr: 0x100007D30, symSize: 0x3C }
  - { offsetInCU: 0x1E753, offset: 0x1E753, size: 0x8, addend: 0x0, symName: __ZNSt3__116reverse_iteratorINS0_IPNS_10unique_ptrIN10ChessBoard5PieceENS_14default_deleteIS3_EEEEEEEppB7v160006Ev, symObjAddr: 0x58A8, symBinAddr: 0x100007DF0, symSize: 0x30 }
  - { offsetInCU: 0x1E779, offset: 0x1E779, size: 0x8, addend: 0x0, symName: __ZNKSt3__116reverse_iteratorINS0_IPNS_10unique_ptrIN10ChessBoard5PieceENS_14default_deleteIS3_EEEEEEE4baseB7v160006Ev, symObjAddr: 0x58D8, symBinAddr: 0x100007E20, symSize: 0x24 }
  - { offsetInCU: 0x1E7A4, offset: 0x1E7A4, size: 0x8, addend: 0x0, symName: __ZNSt3__119__to_address_helperINS_16reverse_iteratorINS1_IPNS_10unique_ptrIN10ChessBoard5PieceENS_14default_deleteIS4_EEEEEEEEvE6__callB7v160006ERKSA_, symObjAddr: 0x58FC, symBinAddr: 0x100007E44, symSize: 0x38 }
  - { offsetInCU: 0x1E7C7, offset: 0x1E7C7, size: 0x8, addend: 0x0, symName: __ZNKSt3__116reverse_iteratorINS0_IPNS_10unique_ptrIN10ChessBoard5PieceENS_14default_deleteIS3_EEEEEEEptB7v160006Ev, symObjAddr: 0x5934, symBinAddr: 0x100007E7C, symSize: 0x24 }
  - { offsetInCU: 0x1E7ED, offset: 0x1E7ED, size: 0x8, addend: 0x0, symName: __ZNKSt3__116reverse_iteratorINS0_IPNS_10unique_ptrIN10ChessBoard5PieceENS_14default_deleteIS3_EEEEEEEdeB7v160006Ev, symObjAddr: 0x5958, symBinAddr: 0x100007EA0, symSize: 0x34 }
  - { offsetInCU: 0x1E821, offset: 0x1E821, size: 0x8, addend: 0x0, symName: __ZNSt3__116reverse_iteratorIPNS_10unique_ptrIN10ChessBoard5PieceENS_14default_deleteIS3_EEEEEmmB7v160006Ev, symObjAddr: 0x598C, symBinAddr: 0x100007ED4, symSize: 0x20 }
  - { offsetInCU: 0x1E847, offset: 0x1E847, size: 0x8, addend: 0x0, symName: __ZNSt3__116reverse_iteratorINS0_IPNS_10unique_ptrIN10ChessBoard5PieceENS_14default_deleteIS3_EEEEEEEC2B7v160006ES8_, symObjAddr: 0x59AC, symBinAddr: 0x100007EF4, symSize: 0x2C }
  - { offsetInCU: 0x1E87F, offset: 0x1E87F, size: 0x8, addend: 0x0, symName: __ZNSt3__116reverse_iteratorIPNS_10unique_ptrIN10ChessBoard5PieceENS_14default_deleteIS3_EEEEEC2B7v160006ES7_, symObjAddr: 0x59D8, symBinAddr: 0x100007F20, symSize: 0x28 }
  - { offsetInCU: 0x1E8B7, offset: 0x1E8B7, size: 0x8, addend: 0x0, symName: __ZNSt3__114__split_bufferINS_10unique_ptrIN10ChessBoard5PieceENS_14default_deleteIS3_EEEERNS_9allocatorIS6_EEED2Ev, symObjAddr: 0x5A00, symBinAddr: 0x100007F48, symSize: 0x8C }
  - { offsetInCU: 0x1E8E3, offset: 0x1E8E3, size: 0x8, addend: 0x0, symName: __ZNSt3__114__split_bufferINS_10unique_ptrIN10ChessBoard5PieceENS_14default_deleteIS3_EEEERNS_9allocatorIS6_EEE5clearB7v160006Ev, symObjAddr: 0x5A8C, symBinAddr: 0x100007FD4, symSize: 0x28 }
  - { offsetInCU: 0x1E909, offset: 0x1E909, size: 0x8, addend: 0x0, symName: __ZNKSt3__114__split_bufferINS_10unique_ptrIN10ChessBoard5PieceENS_14default_deleteIS3_EEEERNS_9allocatorIS6_EEE8capacityB7v160006Ev, symObjAddr: 0x5AB4, symBinAddr: 0x100007FFC, symSize: 0x40 }
  - { offsetInCU: 0x1E92F, offset: 0x1E92F, size: 0x8, addend: 0x0, symName: __ZNSt3__114__split_bufferINS_10unique_ptrIN10ChessBoard5PieceENS_14default_deleteIS3_EEEERNS_9allocatorIS6_EEE17__destruct_at_endB7v160006EPS6_, symObjAddr: 0x5AF4, symBinAddr: 0x10000803C, symSize: 0x2C }
  - { offsetInCU: 0x1E963, offset: 0x1E963, size: 0x8, addend: 0x0, symName: __ZNSt3__114__split_bufferINS_10unique_ptrIN10ChessBoard5PieceENS_14default_deleteIS3_EEEERNS_9allocatorIS6_EEE17__destruct_at_endB7v160006EPS6_NS_17integral_constantIbLb0EEE, symObjAddr: 0x5B20, symBinAddr: 0x100008068, symSize: 0x80 }
  - { offsetInCU: 0x1E9A3, offset: 0x1E9A3, size: 0x8, addend: 0x0, symName: __ZNKSt3__114__split_bufferINS_10unique_ptrIN10ChessBoard5PieceENS_14default_deleteIS3_EEEERNS_9allocatorIS6_EEE9__end_capB7v160006Ev, symObjAddr: 0x5BA0, symBinAddr: 0x1000080E8, symSize: 0x28 }
  - { offsetInCU: 0x1E9C9, offset: 0x1E9C9, size: 0x8, addend: 0x0, symName: __ZNKSt3__117__compressed_pairIPNS_10unique_ptrIN10ChessBoard5PieceENS_14default_deleteIS3_EEEERNS_9allocatorIS6_EEE5firstB7v160006Ev, symObjAddr: 0x5BC8, symBinAddr: 0x100008110, symSize: 0x24 }
  - { offsetInCU: 0x1E9EF, offset: 0x1E9EF, size: 0x8, addend: 0x0, symName: __ZNSt3__16vectorINS_10unique_ptrIN10ChessBoard5PieceENS_14default_deleteIS3_EEEENS_9allocatorIS6_EEE27__invalidate_iterators_pastB7v160006EPS6_, symObjAddr: 0x5BEC, symBinAddr: 0x100008134, symSize: 0x14 }
  - { offsetInCU: 0x1EA26, offset: 0x1EA26, size: 0x8, addend: 0x0, symName: __ZNKSt3__16vectorINS_10unique_ptrIN10ChessBoard5PieceENS_14default_deleteIS3_EEEENS_9allocatorIS6_EEE17__annotate_shrinkB7v160006Em, symObjAddr: 0x5C00, symBinAddr: 0x100008148, symSize: 0xB4 }
  - { offsetInCU: 0x1EA5B, offset: 0x1EA5B, size: 0x8, addend: 0x0, symName: __ZNSt3__18functionIFvRKNS_12basic_stringIcNS_11char_traitsIcEENS_9allocatorIcEEEEEED2Ev, symObjAddr: 0x5CB4, symBinAddr: 0x1000081FC, symSize: 0x2C }
  - { offsetInCU: 0x1EA87, offset: 0x1EA87, size: 0x8, addend: 0x0, symName: __ZNSt3__110__function12__value_funcIFvRKNS_12basic_stringIcNS_11char_traitsIcEENS_9allocatorIcEEEEEED1B7v160006Ev, symObjAddr: 0x5CE0, symBinAddr: 0x100008228, symSize: 0x2C }
  - { offsetInCU: 0x1EAB1, offset: 0x1EAB1, size: 0x8, addend: 0x0, symName: __ZNSt3__110__function12__value_funcIFvRKNS_12basic_stringIcNS_11char_traitsIcEENS_9allocatorIcEEEEEED2B7v160006Ev, symObjAddr: 0x5D0C, symBinAddr: 0x100008254, symSize: 0x90 }
  - { offsetInCU: 0x1EADB, offset: 0x1EADB, size: 0x8, addend: 0x0, symName: __ZNSt3__18functionIFvRKN10ChessBoard5PieceERKNS_12basic_stringIcNS_11char_traitsIcEENS_9allocatorIcEEEESC_EED2Ev, symObjAddr: 0x5D9C, symBinAddr: 0x1000082E4, symSize: 0x2C }
  - { offsetInCU: 0x1EB07, offset: 0x1EB07, size: 0x8, addend: 0x0, symName: __ZNSt3__110__function12__value_funcIFvRKN10ChessBoard5PieceERKNS_12basic_stringIcNS_11char_traitsIcEENS_9allocatorIcEEEESD_EED1B7v160006Ev, symObjAddr: 0x5DC8, symBinAddr: 0x100008310, symSize: 0x2C }
  - { offsetInCU: 0x1EB31, offset: 0x1EB31, size: 0x8, addend: 0x0, symName: __ZNSt3__110__function12__value_funcIFvRKN10ChessBoard5PieceERKNS_12basic_stringIcNS_11char_traitsIcEENS_9allocatorIcEEEESD_EED2B7v160006Ev, symObjAddr: 0x5DF4, symBinAddr: 0x10000833C, symSize: 0x90 }
  - { offsetInCU: 0x1EB5B, offset: 0x1EB5B, size: 0x8, addend: 0x0, symName: __ZNSt3__18functionIFvN10ChessBoard5ColorEEED2Ev, symObjAddr: 0x5E84, symBinAddr: 0x1000083CC, symSize: 0x2C }
  - { offsetInCU: 0x1EB87, offset: 0x1EB87, size: 0x8, addend: 0x0, symName: __ZNSt3__110__function12__value_funcIFvN10ChessBoard5ColorEEED1B7v160006Ev, symObjAddr: 0x5EB0, symBinAddr: 0x1000083F8, symSize: 0x2C }
  - { offsetInCU: 0x1EBB1, offset: 0x1EBB1, size: 0x8, addend: 0x0, symName: __ZNSt3__110__function12__value_funcIFvN10ChessBoard5ColorEEED2B7v160006Ev, symObjAddr: 0x5EDC, symBinAddr: 0x100008424, symSize: 0x90 }
  - { offsetInCU: 0x1EBDB, offset: 0x1EBDB, size: 0x8, addend: 0x0, symName: __ZNSt3__18functionIFvRKN10ChessBoard5PieceERKNS_12basic_stringIcNS_11char_traitsIcEENS_9allocatorIcEEEEEED2Ev, symObjAddr: 0x5F6C, symBinAddr: 0x1000084B4, symSize: 0x2C }
  - { offsetInCU: 0x1EC07, offset: 0x1EC07, size: 0x8, addend: 0x0, symName: __ZNSt3__110__function12__value_funcIFvRKN10ChessBoard5PieceERKNS_12basic_stringIcNS_11char_traitsIcEENS_9allocatorIcEEEEEED1B7v160006Ev, symObjAddr: 0x5F98, symBinAddr: 0x1000084E0, symSize: 0x2C }
  - { offsetInCU: 0x1EC31, offset: 0x1EC31, size: 0x8, addend: 0x0, symName: __ZNSt3__110__function12__value_funcIFvRKN10ChessBoard5PieceERKNS_12basic_stringIcNS_11char_traitsIcEENS_9allocatorIcEEEEEED2B7v160006Ev, symObjAddr: 0x5FC4, symBinAddr: 0x10000850C, symSize: 0x90 }
  - { offsetInCU: 0x1EC5B, offset: 0x1EC5B, size: 0x8, addend: 0x0, symName: __ZNSt3__18functionIFvRKNS_6vectorINS1_INS_10unique_ptrIN10ChessBoard5PieceENS_14default_deleteIS4_EEEENS_9allocatorIS7_EEEENS8_ISA_EEEEEED2Ev, symObjAddr: 0x6054, symBinAddr: 0x10000859C, symSize: 0x2C }
  - { offsetInCU: 0x1EC87, offset: 0x1EC87, size: 0x8, addend: 0x0, symName: __ZNSt3__110__function12__value_funcIFvRKNS_6vectorINS2_INS_10unique_ptrIN10ChessBoard5PieceENS_14default_deleteIS5_EEEENS_9allocatorIS8_EEEENS9_ISB_EEEEEED1B7v160006Ev, symObjAddr: 0x6080, symBinAddr: 0x1000085C8, symSize: 0x2C }
  - { offsetInCU: 0x1ECB1, offset: 0x1ECB1, size: 0x8, addend: 0x0, symName: __ZNSt3__110__function12__value_funcIFvRKNS_6vectorINS2_INS_10unique_ptrIN10ChessBoard5PieceENS_14default_deleteIS5_EEEENS_9allocatorIS8_EEEENS9_ISB_EEEEEED2B7v160006Ev, symObjAddr: 0x60AC, symBinAddr: 0x1000085F4, symSize: 0x90 }
  - { offsetInCU: 0x1ECDB, offset: 0x1ECDB, size: 0x8, addend: 0x0, symName: __ZNSt3__16vectorINS0_INS_10unique_ptrIN10ChessBoard5PieceENS_14default_deleteIS3_EEEENS_9allocatorIS6_EEEENS7_IS9_EEED2B7v160006Ev, symObjAddr: 0x613C, symBinAddr: 0x100008684, symSize: 0x44 }
  - { offsetInCU: 0x1ED05, offset: 0x1ED05, size: 0x8, addend: 0x0, symName: __ZNSt3__16vectorINS0_INS_10unique_ptrIN10ChessBoard5PieceENS_14default_deleteIS3_EEEENS_9allocatorIS6_EEEENS7_IS9_EEE16__destroy_vectorC1ERSB_, symObjAddr: 0x6180, symBinAddr: 0x1000086C8, symSize: 0x34 }
  - { offsetInCU: 0x1ED3E, offset: 0x1ED3E, size: 0x8, addend: 0x0, symName: __ZNSt3__16vectorINS0_INS_10unique_ptrIN10ChessBoard5PieceENS_14default_deleteIS3_EEEENS_9allocatorIS6_EEEENS7_IS9_EEE16__destroy_vectorclB7v160006Ev, symObjAddr: 0x61B4, symBinAddr: 0x1000086FC, symSize: 0x9C }
  - { offsetInCU: 0x1ED64, offset: 0x1ED64, size: 0x8, addend: 0x0, symName: __ZNSt3__16vectorINS0_INS_10unique_ptrIN10ChessBoard5PieceENS_14default_deleteIS3_EEEENS_9allocatorIS6_EEEENS7_IS9_EEE16__destroy_vectorC2ERSB_, symObjAddr: 0x6250, symBinAddr: 0x100008798, symSize: 0x20 }
  - { offsetInCU: 0x1ED9D, offset: 0x1ED9D, size: 0x8, addend: 0x0, symName: __ZNSt3__16vectorINS0_INS_10unique_ptrIN10ChessBoard5PieceENS_14default_deleteIS3_EEEENS_9allocatorIS6_EEEENS7_IS9_EEE7__clearB7v160006Ev, symObjAddr: 0x6280, symBinAddr: 0x1000087C8, symSize: 0x28 }
  - { offsetInCU: 0x1EDC3, offset: 0x1EDC3, size: 0x8, addend: 0x0, symName: __ZNSt3__18functionIFvRKN10ChessBoard5PieceERKNS_12basic_stringIcNS_11char_traitsIcEENS_9allocatorIcEEEESC_EEaSIZN15ChessBoardPrintC1ERS1_EUlS4_SC_SC_E_vEERSE_OT_, symObjAddr: 0x6334, symBinAddr: 0x10000887C, symSize: 0x80 }
  - { offsetInCU: 0x1EE04, offset: 0x1EE04, size: 0x8, addend: 0x0, symName: __ZNSt3__18functionIFvRKN10ChessBoard5PieceERKNS_12basic_stringIcNS_11char_traitsIcEENS_9allocatorIcEEEEEEaSIZN15ChessBoardPrintC1ERS1_EUlS4_SC_E_vEERSE_OT_, symObjAddr: 0x63B4, symBinAddr: 0x1000088FC, symSize: 0x80 }
  - { offsetInCU: 0x1EE45, offset: 0x1EE45, size: 0x8, addend: 0x0, symName: __ZNSt3__18functionIFvN10ChessBoard5ColorEEEaSIZN15ChessBoardPrintC1ERS1_EUlS2_E_vEERS4_OT_, symObjAddr: 0x6434, symBinAddr: 0x10000897C, symSize: 0x80 }
  - { offsetInCU: 0x1EE86, offset: 0x1EE86, size: 0x8, addend: 0x0, symName: __ZNSt3__18functionIFvRKN10ChessBoard5PieceERKNS_12basic_stringIcNS_11char_traitsIcEENS_9allocatorIcEEEESC_EEaSIZN15ChessBoardPrintC1ERS1_EUlS4_SC_SC_E0_vEERSE_OT_, symObjAddr: 0x64B4, symBinAddr: 0x1000089FC, symSize: 0x80 }
  - { offsetInCU: 0x1EEC7, offset: 0x1EEC7, size: 0x8, addend: 0x0, symName: __ZNSt3__18functionIFvRKNS_12basic_stringIcNS_11char_traitsIcEENS_9allocatorIcEEEEEEaSIZN15ChessBoardPrintC1ER10ChessBoardEUlS8_E_vEERSA_OT_, symObjAddr: 0x6534, symBinAddr: 0x100008A7C, symSize: 0x80 }
  - { offsetInCU: 0x1EF08, offset: 0x1EF08, size: 0x8, addend: 0x0, symName: __ZNSt3__18functionIFvRKNS_6vectorINS1_INS_10unique_ptrIN10ChessBoard5PieceENS_14default_deleteIS4_EEEENS_9allocatorIS7_EEEENS8_ISA_EEEEEEaSIZN15ChessBoardPrintC1ERS3_EUlSE_E_vEERSG_OT_, symObjAddr: 0x65B4, symBinAddr: 0x100008AFC, symSize: 0x80 }
  - { offsetInCU: 0x1EF49, offset: 0x1EF49, size: 0x8, addend: 0x0, symName: __ZNSt3__18functionIFvRKN10ChessBoard5PieceERKNS_12basic_stringIcNS_11char_traitsIcEENS_9allocatorIcEEEESC_EEC1IZN15ChessBoardPrintC1ERS1_EUlS4_SC_SC_E_vEET_, symObjAddr: 0x6634, symBinAddr: 0x100008B7C, symSize: 0x2C }
  - { offsetInCU: 0x1EF8E, offset: 0x1EF8E, size: 0x8, addend: 0x0, symName: __ZNSt3__18functionIFvRKN10ChessBoard5PieceERKNS_12basic_stringIcNS_11char_traitsIcEENS_9allocatorIcEEEESC_EE4swapERSE_, symObjAddr: 0x6660, symBinAddr: 0x100008BA8, symSize: 0x2C }
  - { offsetInCU: 0x1EFC5, offset: 0x1EFC5, size: 0x8, addend: 0x0, symName: __ZNSt3__18functionIFvRKN10ChessBoard5PieceERKNS_12basic_stringIcNS_11char_traitsIcEENS_9allocatorIcEEEESC_EEC2IZN15ChessBoardPrintC1ERS1_EUlS4_SC_SC_E_vEET_, symObjAddr: 0x668C, symBinAddr: 0x100008BD4, symSize: 0x30 }
  - { offsetInCU: 0x1F00A, offset: 0x1F00A, size: 0x8, addend: 0x0, symName: __ZNSt3__110__function12__value_funcIFvRKN10ChessBoard5PieceERKNS_12basic_stringIcNS_11char_traitsIcEENS_9allocatorIcEEEESD_EEC1B7v160006IZN15ChessBoardPrintC1ERS2_EUlS5_SD_SD_E_vEEOT_, symObjAddr: 0x66BC, symBinAddr: 0x100008C04, symSize: 0x50 }
  - { offsetInCU: 0x1F04D, offset: 0x1F04D, size: 0x8, addend: 0x0, symName: __ZNSt3__19allocatorIZN15ChessBoardPrintC1ER10ChessBoardEUlRKNS2_5PieceERKNS_12basic_stringIcNS_11char_traitsIcEENS0_IcEEEESD_E_EC1B7v160006Ev, symObjAddr: 0x670C, symBinAddr: 0x100008C54, symSize: 0x2C }
  - { offsetInCU: 0x1F077, offset: 0x1F077, size: 0x8, addend: 0x0, symName: __ZNSt3__110__function12__value_funcIFvRKN10ChessBoard5PieceERKNS_12basic_stringIcNS_11char_traitsIcEENS_9allocatorIcEEEESD_EEC1B7v160006IZN15ChessBoardPrintC1ERS2_EUlS5_SD_SD_E_NS9_ISJ_EEEEOT_RKT0_, symObjAddr: 0x6738, symBinAddr: 0x100008C80, symSize: 0x3C }
  - { offsetInCU: 0x1F0D1, offset: 0x1F0D1, size: 0x8, addend: 0x0, symName: __ZNSt3__19allocatorIZN15ChessBoardPrintC1ER10ChessBoardEUlRKNS2_5PieceERKNS_12basic_stringIcNS_11char_traitsIcEENS0_IcEEEESD_E_EC2B7v160006Ev, symObjAddr: 0x6774, symBinAddr: 0x100008CBC, symSize: 0x2C }
  - { offsetInCU: 0x1F0FB, offset: 0x1F0FB, size: 0x8, addend: 0x0, symName: __ZNSt3__116__non_trivial_ifILb1ENS_9allocatorIZN15ChessBoardPrintC1ER10ChessBoardEUlRKNS3_5PieceERKNS_12basic_stringIcNS_11char_traitsIcEENS1_IcEEEESE_E_EEEC2B7v160006Ev, symObjAddr: 0x67A0, symBinAddr: 0x100008CE8, symSize: 0x14 }
  - { offsetInCU: 0x1F125, offset: 0x1F125, size: 0x8, addend: 0x0, symName: __ZNSt3__110__function12__value_funcIFvRKN10ChessBoard5PieceERKNS_12basic_stringIcNS_11char_traitsIcEENS_9allocatorIcEEEESD_EEC2B7v160006IZN15ChessBoardPrintC1ERS2_EUlS5_SD_SD_E_NS9_ISJ_EEEEOT_RKT0_, symObjAddr: 0x67B4, symBinAddr: 0x100008CFC, symSize: 0x94 }
  - { offsetInCU: 0x1F1CC, offset: 0x1F1CC, size: 0x8, addend: 0x0, symName: __ZNSt3__19allocatorINS_10__function6__funcIZN15ChessBoardPrintC1ER10ChessBoardEUlRKNS4_5PieceERKNS_12basic_stringIcNS_11char_traitsIcEENS0_IcEEEESF_E_NS0_ISG_EEFvS8_SF_SF_EEEEC1B7v160006ISG_EERKNS0_IT_EE, symObjAddr: 0x6860, symBinAddr: 0x100008DA8, symSize: 0x34 }
  - { offsetInCU: 0x1F20E, offset: 0x1F20E, size: 0x8, addend: 0x0, symName: __ZNSt3__19allocatorIZN15ChessBoardPrintC1ER10ChessBoardEUlRKNS2_5PieceERKNS_12basic_stringIcNS_11char_traitsIcEENS0_IcEEEESD_E_EC1B7v160006INS_10__function6__funcISE_SF_FvS6_SD_SD_EEEEERKNS0_IT_EE, symObjAddr: 0x6894, symBinAddr: 0x100008DDC, symSize: 0x34 }
  - { offsetInCU: 0x1F24B, offset: 0x1F24B, size: 0x8, addend: 0x0, symName: __ZNSt3__110__function6__funcIZN15ChessBoardPrintC1ER10ChessBoardEUlRKNS3_5PieceERKNS_12basic_stringIcNS_11char_traitsIcEENS_9allocatorIcEEEESF_E_NSB_ISG_EEFvS7_SF_SF_EEC1B7v160006EOSG_OSH_, symObjAddr: 0x68C8, symBinAddr: 0x100008E10, symSize: 0x3C }
  - { offsetInCU: 0x1F293, offset: 0x1F293, size: 0x8, addend: 0x0, symName: __ZNSt3__19allocatorINS_10__function6__funcIZN15ChessBoardPrintC1ER10ChessBoardEUlRKNS4_5PieceERKNS_12basic_stringIcNS_11char_traitsIcEENS0_IcEEEESF_E_NS0_ISG_EEFvS8_SF_SF_EEEEC2B7v160006ISG_EERKNS0_IT_EE, symObjAddr: 0x6904, symBinAddr: 0x100008E4C, symSize: 0x30 }
  - { offsetInCU: 0x1F2D0, offset: 0x1F2D0, size: 0x8, addend: 0x0, symName: __ZNSt3__116__non_trivial_ifILb1ENS_9allocatorINS_10__function6__funcIZN15ChessBoardPrintC1ER10ChessBoardEUlRKNS5_5PieceERKNS_12basic_stringIcNS_11char_traitsIcEENS1_IcEEEESG_E_NS1_ISH_EEFvS9_SG_SG_EEEEEEC2B7v160006Ev, symObjAddr: 0x6934, symBinAddr: 0x100008E7C, symSize: 0x14 }
  - { offsetInCU: 0x1F2FA, offset: 0x1F2FA, size: 0x8, addend: 0x0, symName: __ZNSt3__19allocatorIZN15ChessBoardPrintC1ER10ChessBoardEUlRKNS2_5PieceERKNS_12basic_stringIcNS_11char_traitsIcEENS0_IcEEEESD_E_EC2B7v160006INS_10__function6__funcISE_SF_FvS6_SD_SD_EEEEERKNS0_IT_EE, symObjAddr: 0x6948, symBinAddr: 0x100008E90, symSize: 0x30 }
  - { offsetInCU: 0x1F337, offset: 0x1F337, size: 0x8, addend: 0x0, symName: __ZNSt3__110__function6__funcIZN15ChessBoardPrintC1ER10ChessBoardEUlRKNS3_5PieceERKNS_12basic_stringIcNS_11char_traitsIcEENS_9allocatorIcEEEESF_E_NSB_ISG_EEFvS7_SF_SF_EEC2B7v160006EOSG_OSH_, symObjAddr: 0x6978, symBinAddr: 0x100008EC0, symSize: 0x88 }
  - { offsetInCU: 0x1F37F, offset: 0x1F37F, size: 0x8, addend: 0x0, symName: __ZNSt3__110__function6__baseIFvRKN10ChessBoard5PieceERKNS_12basic_stringIcNS_11char_traitsIcEENS_9allocatorIcEEEESD_EEC2B7v160006Ev, symObjAddr: 0x6A00, symBinAddr: 0x100008F48, symSize: 0x24 }
  - { offsetInCU: 0x1F3A9, offset: 0x1F3A9, size: 0x8, addend: 0x0, symName: __ZNSt3__110__function12__alloc_funcIZN15ChessBoardPrintC1ER10ChessBoardEUlRKNS3_5PieceERKNS_12basic_stringIcNS_11char_traitsIcEENS_9allocatorIcEEEESF_E_NSB_ISG_EEFvS7_SF_SF_EEC1B7v160006EOSG_OSH_, symObjAddr: 0x6A24, symBinAddr: 0x100008F6C, symSize: 0x3C }
  - { offsetInCU: 0x1F3EF, offset: 0x1F3EF, size: 0x8, addend: 0x0, symName: __ZNSt3__110__function6__baseIFvRKN10ChessBoard5PieceERKNS_12basic_stringIcNS_11char_traitsIcEENS_9allocatorIcEEEESD_EED2Ev, symObjAddr: 0x6A60, symBinAddr: 0x100008FA8, symSize: 0x14 }
  - { offsetInCU: 0x1F419, offset: 0x1F419, size: 0x8, addend: 0x0, symName: __ZNSt3__110__function6__funcIZN15ChessBoardPrintC1ER10ChessBoardEUlRKNS3_5PieceERKNS_12basic_stringIcNS_11char_traitsIcEENS_9allocatorIcEEEESF_E_NSB_ISG_EEFvS7_SF_SF_EED1Ev, symObjAddr: 0x6A74, symBinAddr: 0x100008FBC, symSize: 0x2C }
  - { offsetInCU: 0x1F446, offset: 0x1F446, size: 0x8, addend: 0x0, symName: __ZNSt3__110__function6__funcIZN15ChessBoardPrintC1ER10ChessBoardEUlRKNS3_5PieceERKNS_12basic_stringIcNS_11char_traitsIcEENS_9allocatorIcEEEESF_E_NSB_ISG_EEFvS7_SF_SF_EED0Ev, symObjAddr: 0x6AA0, symBinAddr: 0x100008FE8, symSize: 0x30 }
  - { offsetInCU: 0x1F473, offset: 0x1F473, size: 0x8, addend: 0x0, symName: __ZNKSt3__110__function6__funcIZN15ChessBoardPrintC1ER10ChessBoardEUlRKNS3_5PieceERKNS_12basic_stringIcNS_11char_traitsIcEENS_9allocatorIcEEEESF_E_NSB_ISG_EEFvS7_SF_SF_EE7__cloneEv, symObjAddr: 0x6AD0, symBinAddr: 0x100009018, symSize: 0xFC }
  - { offsetInCU: 0x1F4C5, offset: 0x1F4C5, size: 0x8, addend: 0x0, symName: __ZNKSt3__110__function6__funcIZN15ChessBoardPrintC1ER10ChessBoardEUlRKNS3_5PieceERKNS_12basic_stringIcNS_11char_traitsIcEENS_9allocatorIcEEEESF_E_NSB_ISG_EEFvS7_SF_SF_EE7__cloneEPNS0_6__baseISI_EE, symObjAddr: 0x6BCC, symBinAddr: 0x100009114, symSize: 0x58 }
  - { offsetInCU: 0x1F4FC, offset: 0x1F4FC, size: 0x8, addend: 0x0, symName: __ZNSt3__110__function6__funcIZN15ChessBoardPrintC1ER10ChessBoardEUlRKNS3_5PieceERKNS_12basic_stringIcNS_11char_traitsIcEENS_9allocatorIcEEEESF_E_NSB_ISG_EEFvS7_SF_SF_EE7destroyEv, symObjAddr: 0x6C24, symBinAddr: 0x10000916C, symSize: 0x28 }
  - { offsetInCU: 0x1F524, offset: 0x1F524, size: 0x8, addend: 0x0, symName: __ZNSt3__110__function6__funcIZN15ChessBoardPrintC1ER10ChessBoardEUlRKNS3_5PieceERKNS_12basic_stringIcNS_11char_traitsIcEENS_9allocatorIcEEEESF_E_NSB_ISG_EEFvS7_SF_SF_EE18destroy_deallocateEv, symObjAddr: 0x6C4C, symBinAddr: 0x100009194, symSize: 0x58 }
  - { offsetInCU: 0x1F567, offset: 0x1F567, size: 0x8, addend: 0x0, symName: __ZNSt3__110__function6__funcIZN15ChessBoardPrintC1ER10ChessBoardEUlRKNS3_5PieceERKNS_12basic_stringIcNS_11char_traitsIcEENS_9allocatorIcEEEESF_E_NSB_ISG_EEFvS7_SF_SF_EEclES7_SF_SF_, symObjAddr: 0x6CA4, symBinAddr: 0x1000091EC, symSize: 0x40 }
  - { offsetInCU: 0x1F5BC, offset: 0x1F5BC, size: 0x8, addend: 0x0, symName: __ZNKSt3__110__function6__funcIZN15ChessBoardPrintC1ER10ChessBoardEUlRKNS3_5PieceERKNS_12basic_stringIcNS_11char_traitsIcEENS_9allocatorIcEEEESF_E_NSB_ISG_EEFvS7_SF_SF_EE6targetERKSt9type_info, symObjAddr: 0x6CE4, symBinAddr: 0x10000922C, symSize: 0x60 }
  - { offsetInCU: 0x1F5F3, offset: 0x1F5F3, size: 0x8, addend: 0x0, symName: __ZNKSt3__110__function6__funcIZN15ChessBoardPrintC1ER10ChessBoardEUlRKNS3_5PieceERKNS_12basic_stringIcNS_11char_traitsIcEENS_9allocatorIcEEEESF_E_NSB_ISG_EEFvS7_SF_SF_EE11target_typeEv, symObjAddr: 0x6D44, symBinAddr: 0x10000928C, symSize: 0x18 }
  - { offsetInCU: 0x1F61B, offset: 0x1F61B, size: 0x8, addend: 0x0, symName: __ZNSt3__110__function6__baseIFvRKN10ChessBoard5PieceERKNS_12basic_stringIcNS_11char_traitsIcEENS_9allocatorIcEEEESD_EED1Ev, symObjAddr: 0x6D5C, symBinAddr: 0x1000092A4, symSize: 0x14 }
  - { offsetInCU: 0x1F645, offset: 0x1F645, size: 0x8, addend: 0x0, symName: __ZNSt3__110__function6__baseIFvRKN10ChessBoard5PieceERKNS_12basic_stringIcNS_11char_traitsIcEENS_9allocatorIcEEEESD_EED0Ev, symObjAddr: 0x6D70, symBinAddr: 0x1000092B8, symSize: 0xC }
  - { offsetInCU: 0x1F66F, offset: 0x1F66F, size: 0x8, addend: 0x0, symName: __ZNSt3__110__function12__alloc_funcIZN15ChessBoardPrintC1ER10ChessBoardEUlRKNS3_5PieceERKNS_12basic_stringIcNS_11char_traitsIcEENS_9allocatorIcEEEESF_E_NSB_ISG_EEFvS7_SF_SF_EEC2B7v160006EOSG_OSH_, symObjAddr: 0x6D7C, symBinAddr: 0x1000092C4, symSize: 0x5C }
  - { offsetInCU: 0x1F6B5, offset: 0x1F6B5, size: 0x8, addend: 0x0, symName: __ZNSt3__117__compressed_pairIZN15ChessBoardPrintC1ER10ChessBoardEUlRKNS2_5PieceERKNS_12basic_stringIcNS_11char_traitsIcEENS_9allocatorIcEEEESE_E_NSA_ISF_EEEC1B7v160006IJOSF_EJOSG_EEENS_21piecewise_construct_tENS_5tupleIJDpT_EEENSM_IJDpT0_EEE, symObjAddr: 0x6E30, symBinAddr: 0x100009378, symSize: 0x3C }
  - { offsetInCU: 0x1F71F, offset: 0x1F71F, size: 0x8, addend: 0x0, symName: __ZNSt3__15tupleIJOZN15ChessBoardPrintC1ER10ChessBoardEUlRKNS2_5PieceERKNS_12basic_stringIcNS_11char_traitsIcEENS_9allocatorIcEEEESE_E_EEC1B7v160006IJSF_ELi0EEEDpOT_, symObjAddr: 0x6E6C, symBinAddr: 0x1000093B4, symSize: 0x34 }
  - { offsetInCU: 0x1F769, offset: 0x1F769, size: 0x8, addend: 0x0, symName: __ZNSt3__15tupleIJOZN15ChessBoardPrintC1ER10ChessBoardEUlRKNS2_5PieceERKNS_12basic_stringIcNS_11char_traitsIcEENS_9allocatorIcEEEESE_E_EEC2B7v160006IJSF_ELi0EEEDpOT_, symObjAddr: 0x6EA0, symBinAddr: 0x1000093E8, symSize: 0x34 }
  - { offsetInCU: 0x1F7B3, offset: 0x1F7B3, size: 0x8, addend: 0x0, symName: __ZNSt3__112__tuple_implINS_15__tuple_indicesIJLm0EEEEJOZN15ChessBoardPrintC1ER10ChessBoardEUlRKNS4_5PieceERKNS_12basic_stringIcNS_11char_traitsIcEENS_9allocatorIcEEEESG_E_EEC1B7v160006IJLm0EEJSI_EJEJEJSH_EEENS1_IJXspT_EEEENS_13__tuple_typesIJDpT0_EEENS1_IJXspT1_EEEENSM_IJDpT2_EEEDpOT3_, symObjAddr: 0x6ED4, symBinAddr: 0x10000941C, symSize: 0x34 }
  - { offsetInCU: 0x1F848, offset: 0x1F848, size: 0x8, addend: 0x0, symName: __ZNSt3__112__tuple_implINS_15__tuple_indicesIJLm0EEEEJOZN15ChessBoardPrintC1ER10ChessBoardEUlRKNS4_5PieceERKNS_12basic_stringIcNS_11char_traitsIcEENS_9allocatorIcEEEESG_E_EEC2B7v160006IJLm0EEJSI_EJEJEJSH_EEENS1_IJXspT_EEEENS_13__tuple_typesIJDpT0_EEENS1_IJXspT1_EEEENSM_IJDpT2_EEEDpOT3_, symObjAddr: 0x6F08, symBinAddr: 0x100009450, symSize: 0x34 }
  - { offsetInCU: 0x1F8DD, offset: 0x1F8DD, size: 0x8, addend: 0x0, symName: __ZNSt3__112__tuple_leafILm0EOZN15ChessBoardPrintC1ER10ChessBoardEUlRKNS2_5PieceERKNS_12basic_stringIcNS_11char_traitsIcEENS_9allocatorIcEEEESE_E_Lb0EEC2B7v160006ISF_vEEOT_, symObjAddr: 0x6F3C, symBinAddr: 0x100009484, symSize: 0x20 }
  - { offsetInCU: 0x1F920, offset: 0x1F920, size: 0x8, addend: 0x0, symName: __ZNSt3__15tupleIJONS_9allocatorIZN15ChessBoardPrintC1ER10ChessBoardEUlRKNS3_5PieceERKNS_12basic_stringIcNS_11char_traitsIcEENS1_IcEEEESE_E_EEEEC1B7v160006IJSG_ELi0EEEDpOT_, symObjAddr: 0x6F5C, symBinAddr: 0x1000094A4, symSize: 0x34 }
  - { offsetInCU: 0x1F96A, offset: 0x1F96A, size: 0x8, addend: 0x0, symName: __ZNSt3__15tupleIJONS_9allocatorIZN15ChessBoardPrintC1ER10ChessBoardEUlRKNS3_5PieceERKNS_12basic_stringIcNS_11char_traitsIcEENS1_IcEEEESE_E_EEEEC2B7v160006IJSG_ELi0EEEDpOT_, symObjAddr: 0x6F90, symBinAddr: 0x1000094D8, symSize: 0x34 }
  - { offsetInCU: 0x1F9B4, offset: 0x1F9B4, size: 0x8, addend: 0x0, symName: __ZNSt3__112__tuple_implINS_15__tuple_indicesIJLm0EEEEJONS_9allocatorIZN15ChessBoardPrintC1ER10ChessBoardEUlRKNS5_5PieceERKNS_12basic_stringIcNS_11char_traitsIcEENS3_IcEEEESG_E_EEEEC1B7v160006IJLm0EEJSJ_EJEJEJSI_EEENS1_IJXspT_EEEENS_13__tuple_typesIJDpT0_EEENS1_IJXspT1_EEEENSN_IJDpT2_EEEDpOT3_, symObjAddr: 0x6FC4, symBinAddr: 0x10000950C, symSize: 0x34 }
  - { offsetInCU: 0x1FA49, offset: 0x1FA49, size: 0x8, addend: 0x0, symName: __ZNSt3__112__tuple_implINS_15__tuple_indicesIJLm0EEEEJONS_9allocatorIZN15ChessBoardPrintC1ER10ChessBoardEUlRKNS5_5PieceERKNS_12basic_stringIcNS_11char_traitsIcEENS3_IcEEEESG_E_EEEEC2B7v160006IJLm0EEJSJ_EJEJEJSI_EEENS1_IJXspT_EEEENS_13__tuple_typesIJDpT0_EEENS1_IJXspT1_EEEENSN_IJDpT2_EEEDpOT3_, symObjAddr: 0x6FF8, symBinAddr: 0x100009540, symSize: 0x34 }
  - { offsetInCU: 0x1FADE, offset: 0x1FADE, size: 0x8, addend: 0x0, symName: __ZNSt3__112__tuple_leafILm0EONS_9allocatorIZN15ChessBoardPrintC1ER10ChessBoardEUlRKNS3_5PieceERKNS_12basic_stringIcNS_11char_traitsIcEENS1_IcEEEESE_E_EELb0EEC2B7v160006ISG_vEEOT_, symObjAddr: 0x702C, symBinAddr: 0x100009574, symSize: 0x20 }
  - { offsetInCU: 0x1FB21, offset: 0x1FB21, size: 0x8, addend: 0x0, symName: __ZNSt3__117__compressed_pairIZN15ChessBoardPrintC1ER10ChessBoardEUlRKNS2_5PieceERKNS_12basic_stringIcNS_11char_traitsIcEENS_9allocatorIcEEEESE_E_NSA_ISF_EEEC2B7v160006IJOSF_EJOSG_EEENS_21piecewise_construct_tENS_5tupleIJDpT_EEENSM_IJDpT0_EEE, symObjAddr: 0x704C, symBinAddr: 0x100009594, symSize: 0x54 }
  - { offsetInCU: 0x1FB8B, offset: 0x1FB8B, size: 0x8, addend: 0x0, symName: __ZNSt3__122__compressed_pair_elemIZN15ChessBoardPrintC1ER10ChessBoardEUlRKNS2_5PieceERKNS_12basic_stringIcNS_11char_traitsIcEENS_9allocatorIcEEEESE_E_Li0ELb1EEC2B7v160006IJOSF_EJLm0EEEENS_21piecewise_construct_tENS_5tupleIJDpT_EEENS_15__tuple_indicesIJXspT0_EEEE, symObjAddr: 0x70A0, symBinAddr: 0x1000095E8, symSize: 0x38 }
  - { offsetInCU: 0x1FBEE, offset: 0x1FBEE, size: 0x8, addend: 0x0, symName: __ZNSt3__122__compressed_pair_elemINS_9allocatorIZN15ChessBoardPrintC1ER10ChessBoardEUlRKNS3_5PieceERKNS_12basic_stringIcNS_11char_traitsIcEENS1_IcEEEESE_E_EELi1ELb1EEC2B7v160006IJOSG_EJLm0EEEENS_21piecewise_construct_tENS_5tupleIJDpT_EEENS_15__tuple_indicesIJXspT0_EEEE, symObjAddr: 0x70D8, symBinAddr: 0x100009620, symSize: 0x38 }
  - { offsetInCU: 0x1FC51, offset: 0x1FC51, size: 0x8, addend: 0x0, symName: __ZNSt3__112__tuple_leafILm0EOZN15ChessBoardPrintC1ER10ChessBoardEUlRKNS2_5PieceERKNS_12basic_stringIcNS_11char_traitsIcEENS_9allocatorIcEEEESE_E_Lb0EE3getB7v160006Ev, symObjAddr: 0x7134, symBinAddr: 0x10000967C, symSize: 0x18 }
  - { offsetInCU: 0x1FC77, offset: 0x1FC77, size: 0x8, addend: 0x0, symName: __ZNSt3__112__tuple_leafILm0EONS_9allocatorIZN15ChessBoardPrintC1ER10ChessBoardEUlRKNS3_5PieceERKNS_12basic_stringIcNS_11char_traitsIcEENS1_IcEEEESE_E_EELb0EE3getB7v160006Ev, symObjAddr: 0x7170, symBinAddr: 0x1000096B8, symSize: 0x18 }
  - { offsetInCU: 0x1FC9D, offset: 0x1FC9D, size: 0x8, addend: 0x0, symName: __ZNSt3__110__function6__funcIZN15ChessBoardPrintC1ER10ChessBoardEUlRKNS3_5PieceERKNS_12basic_stringIcNS_11char_traitsIcEENS_9allocatorIcEEEESF_E_NSB_ISG_EEFvS7_SF_SF_EED2Ev, symObjAddr: 0x7188, symBinAddr: 0x1000096D0, symSize: 0x2C }
  - { offsetInCU: 0x1FCCA, offset: 0x1FCCA, size: 0x8, addend: 0x0, symName: __ZNKSt3__110__function12__alloc_funcIZN15ChessBoardPrintC1ER10ChessBoardEUlRKNS3_5PieceERKNS_12basic_stringIcNS_11char_traitsIcEENS_9allocatorIcEEEESF_E_NSB_ISG_EEFvS7_SF_SF_EE15__get_allocatorB7v160006Ev, symObjAddr: 0x71B4, symBinAddr: 0x1000096FC, symSize: 0x24 }
  - { offsetInCU: 0x1FCF0, offset: 0x1FCF0, size: 0x8, addend: 0x0, symName: __ZNSt3__19allocatorINS_10__function6__funcIZN15ChessBoardPrintC1ER10ChessBoardEUlRKNS4_5PieceERKNS_12basic_stringIcNS_11char_traitsIcEENS0_IcEEEESF_E_NS0_ISG_EEFvS8_SF_SF_EEEE8allocateB7v160006Em, symObjAddr: 0x71D8, symBinAddr: 0x100009720, symSize: 0x58 }
  - { offsetInCU: 0x1FD33, offset: 0x1FD33, size: 0x8, addend: 0x0, symName: __ZNSt3__122__allocator_destructorINS_9allocatorINS_10__function6__funcIZN15ChessBoardPrintC1ER10ChessBoardEUlRKNS5_5PieceERKNS_12basic_stringIcNS_11char_traitsIcEENS1_IcEEEESG_E_NS1_ISH_EEFvS9_SG_SG_EEEEEEC1B7v160006ERSL_m, symObjAddr: 0x7230, symBinAddr: 0x100009778, symSize: 0x3C }
  - { offsetInCU: 0x1FE07, offset: 0x1FE07, size: 0x8, addend: 0x0, symName: __ZNSt3__110unique_ptrINS_10__function6__funcIZN15ChessBoardPrintC1ER10ChessBoardEUlRKNS4_5PieceERKNS_12basic_stringIcNS_11char_traitsIcEENS_9allocatorIcEEEESG_E_NSC_ISH_EEFvS8_SG_SG_EEENS_22__allocator_destructorINSC_ISK_EEEEEC1B7v160006ILb1EvEEPSK_NS_16__dependent_typeINS_27__unique_ptr_deleter_sfinaeISN_EEXT_EE20__good_rval_ref_typeE, symObjAddr: 0x726C, symBinAddr: 0x1000097B4, symSize: 0x3C }
  - { offsetInCU: 0x1FE58, offset: 0x1FE58, size: 0x8, addend: 0x0, symName: __ZNKSt3__110unique_ptrINS_10__function6__funcIZN15ChessBoardPrintC1ER10ChessBoardEUlRKNS4_5PieceERKNS_12basic_stringIcNS_11char_traitsIcEENS_9allocatorIcEEEESG_E_NSC_ISH_EEFvS8_SG_SG_EEENS_22__allocator_destructorINSC_ISK_EEEEE3getB7v160006Ev, symObjAddr: 0x72A8, symBinAddr: 0x1000097F0, symSize: 0x28 }
  - { offsetInCU: 0x1FE7E, offset: 0x1FE7E, size: 0x8, addend: 0x0, symName: __ZNKSt3__110__function12__alloc_funcIZN15ChessBoardPrintC1ER10ChessBoardEUlRKNS3_5PieceERKNS_12basic_stringIcNS_11char_traitsIcEENS_9allocatorIcEEEESF_E_NSB_ISG_EEFvS7_SF_SF_EE8__targetB7v160006Ev, symObjAddr: 0x72D0, symBinAddr: 0x100009818, symSize: 0x24 }
  - { offsetInCU: 0x1FEA4, offset: 0x1FEA4, size: 0x8, addend: 0x0, symName: __ZNSt3__110__function6__funcIZN15ChessBoardPrintC1ER10ChessBoardEUlRKNS3_5PieceERKNS_12basic_stringIcNS_11char_traitsIcEENS_9allocatorIcEEEESF_E_NSB_ISG_EEFvS7_SF_SF_EEC1B7v160006ERKSG_OSH_, symObjAddr: 0x72F4, symBinAddr: 0x10000983C, symSize: 0x3C }
  - { offsetInCU: 0x1FEEC, offset: 0x1FEEC, size: 0x8, addend: 0x0, symName: __ZNSt3__110unique_ptrINS_10__function6__funcIZN15ChessBoardPrintC1ER10ChessBoardEUlRKNS4_5PieceERKNS_12basic_stringIcNS_11char_traitsIcEENS_9allocatorIcEEEESG_E_NSC_ISH_EEFvS8_SG_SG_EEENS_22__allocator_destructorINSC_ISK_EEEEE7releaseB7v160006Ev, symObjAddr: 0x7330, symBinAddr: 0x100009878, symSize: 0x44 }
  - { offsetInCU: 0x1FF21, offset: 0x1FF21, size: 0x8, addend: 0x0, symName: __ZNSt3__110unique_ptrINS_10__function6__funcIZN15ChessBoardPrintC1ER10ChessBoardEUlRKNS4_5PieceERKNS_12basic_stringIcNS_11char_traitsIcEENS_9allocatorIcEEEESG_E_NSC_ISH_EEFvS8_SG_SG_EEENS_22__allocator_destructorINSC_ISK_EEEEED1B7v160006Ev, symObjAddr: 0x7374, symBinAddr: 0x1000098BC, symSize: 0x2C }
  - { offsetInCU: 0x1FF4B, offset: 0x1FF4B, size: 0x8, addend: 0x0, symName: __ZNKSt3__117__compressed_pairIZN15ChessBoardPrintC1ER10ChessBoardEUlRKNS2_5PieceERKNS_12basic_stringIcNS_11char_traitsIcEENS_9allocatorIcEEEESE_E_NSA_ISF_EEE6secondB7v160006Ev, symObjAddr: 0x73A0, symBinAddr: 0x1000098E8, symSize: 0x24 }
  - { offsetInCU: 0x1FF71, offset: 0x1FF71, size: 0x8, addend: 0x0, symName: __ZNKSt3__122__compressed_pair_elemINS_9allocatorIZN15ChessBoardPrintC1ER10ChessBoardEUlRKNS3_5PieceERKNS_12basic_stringIcNS_11char_traitsIcEENS1_IcEEEESE_E_EELi1ELb1EE5__getB7v160006Ev, symObjAddr: 0x73C4, symBinAddr: 0x10000990C, symSize: 0x14 }
  - { offsetInCU: 0x1FFA1, offset: 0x1FFA1, size: 0x8, addend: 0x0, symName: __ZNSt3__116allocator_traitsINS_9allocatorINS_10__function6__funcIZN15ChessBoardPrintC1ER10ChessBoardEUlRKNS5_5PieceERKNS_12basic_stringIcNS_11char_traitsIcEENS1_IcEEEESG_E_NS1_ISH_EEFvS9_SG_SG_EEEEEE8max_sizeB7v160006ISL_vEEmRKSL_, symObjAddr: 0x73D8, symBinAddr: 0x100009920, symSize: 0x24 }
  - { offsetInCU: 0x1FFCF, offset: 0x1FFCF, size: 0x8, addend: 0x0, symName: __ZNKSt3__19allocatorINS_10__function6__funcIZN15ChessBoardPrintC1ER10ChessBoardEUlRKNS4_5PieceERKNS_12basic_stringIcNS_11char_traitsIcEENS0_IcEEEESF_E_NS0_ISG_EEFvS8_SF_SF_EEEE8max_sizeB7v160006Ev, symObjAddr: 0x73FC, symBinAddr: 0x100009944, symSize: 0x14 }
  - { offsetInCU: 0x1FFF5, offset: 0x1FFF5, size: 0x8, addend: 0x0, symName: __ZNSt3__122__allocator_destructorINS_9allocatorINS_10__function6__funcIZN15ChessBoardPrintC1ER10ChessBoardEUlRKNS5_5PieceERKNS_12basic_stringIcNS_11char_traitsIcEENS1_IcEEEESG_E_NS1_ISH_EEFvS9_SG_SG_EEEEEEC2B7v160006ERSL_m, symObjAddr: 0x7410, symBinAddr: 0x100009958, symSize: 0x2C }
  - { offsetInCU: 0x2003B, offset: 0x2003B, size: 0x8, addend: 0x0, symName: __ZNSt3__110unique_ptrINS_10__function6__funcIZN15ChessBoardPrintC1ER10ChessBoardEUlRKNS4_5PieceERKNS_12basic_stringIcNS_11char_traitsIcEENS_9allocatorIcEEEESG_E_NSC_ISH_EEFvS8_SG_SG_EEENS_22__allocator_destructorINSC_ISK_EEEEEC2B7v160006ILb1EvEEPSK_NS_16__dependent_typeINS_27__unique_ptr_deleter_sfinaeISN_EEXT_EE20__good_rval_ref_typeE, symObjAddr: 0x743C, symBinAddr: 0x100009984, symSize: 0x48 }
  - { offsetInCU: 0x2008C, offset: 0x2008C, size: 0x8, addend: 0x0, symName: __ZNSt3__117__compressed_pairIPNS_10__function6__funcIZN15ChessBoardPrintC1ER10ChessBoardEUlRKNS4_5PieceERKNS_12basic_stringIcNS_11char_traitsIcEENS_9allocatorIcEEEESG_E_NSC_ISH_EEFvS8_SG_SG_EEENS_22__allocator_destructorINSC_ISK_EEEEEC1B7v160006IRSL_SO_EEOT_OT0_, symObjAddr: 0x7484, symBinAddr: 0x1000099CC, symSize: 0x3C }
  - { offsetInCU: 0x200E4, offset: 0x200E4, size: 0x8, addend: 0x0, symName: __ZNSt3__117__compressed_pairIPNS_10__function6__funcIZN15ChessBoardPrintC1ER10ChessBoardEUlRKNS4_5PieceERKNS_12basic_stringIcNS_11char_traitsIcEENS_9allocatorIcEEEESG_E_NSC_ISH_EEFvS8_SG_SG_EEENS_22__allocator_destructorINSC_ISK_EEEEEC2B7v160006IRSL_SO_EEOT_OT0_, symObjAddr: 0x74C0, symBinAddr: 0x100009A08, symSize: 0x48 }
  - { offsetInCU: 0x2013C, offset: 0x2013C, size: 0x8, addend: 0x0, symName: __ZNSt3__122__compressed_pair_elemIPNS_10__function6__funcIZN15ChessBoardPrintC1ER10ChessBoardEUlRKNS4_5PieceERKNS_12basic_stringIcNS_11char_traitsIcEENS_9allocatorIcEEEESG_E_NSC_ISH_EEFvS8_SG_SG_EEELi0ELb0EEC2B7v160006IRSL_vEEOT_, symObjAddr: 0x7508, symBinAddr: 0x100009A50, symSize: 0x24 }
  - { offsetInCU: 0x2017E, offset: 0x2017E, size: 0x8, addend: 0x0, symName: __ZNSt3__122__compressed_pair_elemINS_22__allocator_destructorINS_9allocatorINS_10__function6__funcIZN15ChessBoardPrintC1ER10ChessBoardEUlRKNS6_5PieceERKNS_12basic_stringIcNS_11char_traitsIcEENS2_IcEEEESH_E_NS2_ISI_EEFvSA_SH_SH_EEEEEEELi1ELb0EEC2B7v160006ISN_vEEOT_, symObjAddr: 0x752C, symBinAddr: 0x100009A74, symSize: 0x24 }
  - { offsetInCU: 0x201C0, offset: 0x201C0, size: 0x8, addend: 0x0, symName: __ZNKSt3__117__compressed_pairIPNS_10__function6__funcIZN15ChessBoardPrintC1ER10ChessBoardEUlRKNS4_5PieceERKNS_12basic_stringIcNS_11char_traitsIcEENS_9allocatorIcEEEESG_E_NSC_ISH_EEFvS8_SG_SG_EEENS_22__allocator_destructorINSC_ISK_EEEEE5firstB7v160006Ev, symObjAddr: 0x7550, symBinAddr: 0x100009A98, symSize: 0x24 }
  - { offsetInCU: 0x201E6, offset: 0x201E6, size: 0x8, addend: 0x0, symName: __ZNKSt3__122__compressed_pair_elemIPNS_10__function6__funcIZN15ChessBoardPrintC1ER10ChessBoardEUlRKNS4_5PieceERKNS_12basic_stringIcNS_11char_traitsIcEENS_9allocatorIcEEEESG_E_NSC_ISH_EEFvS8_SG_SG_EEELi0ELb0EE5__getB7v160006Ev, symObjAddr: 0x7574, symBinAddr: 0x100009ABC, symSize: 0x14 }
  - { offsetInCU: 0x2020C, offset: 0x2020C, size: 0x8, addend: 0x0, symName: __ZNKSt3__117__compressed_pairIZN15ChessBoardPrintC1ER10ChessBoardEUlRKNS2_5PieceERKNS_12basic_stringIcNS_11char_traitsIcEENS_9allocatorIcEEEESE_E_NSA_ISF_EEE5firstB7v160006Ev, symObjAddr: 0x7588, symBinAddr: 0x100009AD0, symSize: 0x24 }
  - { offsetInCU: 0x20232, offset: 0x20232, size: 0x8, addend: 0x0, symName: __ZNKSt3__122__compressed_pair_elemIZN15ChessBoardPrintC1ER10ChessBoardEUlRKNS2_5PieceERKNS_12basic_stringIcNS_11char_traitsIcEENS_9allocatorIcEEEESE_E_Li0ELb1EE5__getB7v160006Ev, symObjAddr: 0x75AC, symBinAddr: 0x100009AF4, symSize: 0x14 }
  - { offsetInCU: 0x20258, offset: 0x20258, size: 0x8, addend: 0x0, symName: __ZNSt3__110__function6__funcIZN15ChessBoardPrintC1ER10ChessBoardEUlRKNS3_5PieceERKNS_12basic_stringIcNS_11char_traitsIcEENS_9allocatorIcEEEESF_E_NSB_ISG_EEFvS7_SF_SF_EEC2B7v160006ERKSG_OSH_, symObjAddr: 0x75C0, symBinAddr: 0x100009B08, symSize: 0x88 }
  - { offsetInCU: 0x202A0, offset: 0x202A0, size: 0x8, addend: 0x0, symName: __ZNSt3__110__function12__alloc_funcIZN15ChessBoardPrintC1ER10ChessBoardEUlRKNS3_5PieceERKNS_12basic_stringIcNS_11char_traitsIcEENS_9allocatorIcEEEESF_E_NSB_ISG_EEFvS7_SF_SF_EEC1B7v160006ERKSG_OSH_, symObjAddr: 0x7648, symBinAddr: 0x100009B90, symSize: 0x3C }
  - { offsetInCU: 0x202E6, offset: 0x202E6, size: 0x8, addend: 0x0, symName: __ZNSt3__110__function12__alloc_funcIZN15ChessBoardPrintC1ER10ChessBoardEUlRKNS3_5PieceERKNS_12basic_stringIcNS_11char_traitsIcEENS_9allocatorIcEEEESF_E_NSB_ISG_EEFvS7_SF_SF_EEC2B7v160006ERKSG_OSH_, symObjAddr: 0x7684, symBinAddr: 0x100009BCC, symSize: 0x5C }
  - { offsetInCU: 0x2032C, offset: 0x2032C, size: 0x8, addend: 0x0, symName: __ZNSt3__117__compressed_pairIZN15ChessBoardPrintC1ER10ChessBoardEUlRKNS2_5PieceERKNS_12basic_stringIcNS_11char_traitsIcEENS_9allocatorIcEEEESE_E_NSA_ISF_EEEC1B7v160006IJRKSF_EJOSG_EEENS_21piecewise_construct_tENS_5tupleIJDpT_EEENSN_IJDpT0_EEE, symObjAddr: 0x770C, symBinAddr: 0x100009C54, symSize: 0x3C }
  - { offsetInCU: 0x20396, offset: 0x20396, size: 0x8, addend: 0x0, symName: __ZNSt3__15tupleIJRKZN15ChessBoardPrintC1ER10ChessBoardEUlRKNS2_5PieceERKNS_12basic_stringIcNS_11char_traitsIcEENS_9allocatorIcEEEESE_E_EEC1B7v160006INS_4_AndELi0EEESH_, symObjAddr: 0x7748, symBinAddr: 0x100009C90, symSize: 0x34 }
  - { offsetInCU: 0x203DE, offset: 0x203DE, size: 0x8, addend: 0x0, symName: __ZNSt3__15tupleIJRKZN15ChessBoardPrintC1ER10ChessBoardEUlRKNS2_5PieceERKNS_12basic_stringIcNS_11char_traitsIcEENS_9allocatorIcEEEESE_E_EEC2B7v160006INS_4_AndELi0EEESH_, symObjAddr: 0x777C, symBinAddr: 0x100009CC4, symSize: 0x34 }
  - { offsetInCU: 0x20426, offset: 0x20426, size: 0x8, addend: 0x0, symName: __ZNSt3__112__tuple_implINS_15__tuple_indicesIJLm0EEEEJRKZN15ChessBoardPrintC1ER10ChessBoardEUlRKNS4_5PieceERKNS_12basic_stringIcNS_11char_traitsIcEENS_9allocatorIcEEEESG_E_EEC1B7v160006IJLm0EEJSJ_EJEJEJSJ_EEENS1_IJXspT_EEEENS_13__tuple_typesIJDpT0_EEENS1_IJXspT1_EEEENSN_IJDpT2_EEEDpOT3_, symObjAddr: 0x77B0, symBinAddr: 0x100009CF8, symSize: 0x34 }
  - { offsetInCU: 0x204BB, offset: 0x204BB, size: 0x8, addend: 0x0, symName: __ZNSt3__112__tuple_implINS_15__tuple_indicesIJLm0EEEEJRKZN15ChessBoardPrintC1ER10ChessBoardEUlRKNS4_5PieceERKNS_12basic_stringIcNS_11char_traitsIcEENS_9allocatorIcEEEESG_E_EEC2B7v160006IJLm0EEJSJ_EJEJEJSJ_EEENS1_IJXspT_EEEENS_13__tuple_typesIJDpT0_EEENS1_IJXspT1_EEEENSN_IJDpT2_EEEDpOT3_, symObjAddr: 0x77E4, symBinAddr: 0x100009D2C, symSize: 0x34 }
  - { offsetInCU: 0x20550, offset: 0x20550, size: 0x8, addend: 0x0, symName: __ZNSt3__112__tuple_leafILm0ERKZN15ChessBoardPrintC1ER10ChessBoardEUlRKNS2_5PieceERKNS_12basic_stringIcNS_11char_traitsIcEENS_9allocatorIcEEEESE_E_Lb0EEC2B7v160006ISH_vEEOT_, symObjAddr: 0x7818, symBinAddr: 0x100009D60, symSize: 0x20 }
  - { offsetInCU: 0x20593, offset: 0x20593, size: 0x8, addend: 0x0, symName: __ZNSt3__117__compressed_pairIZN15ChessBoardPrintC1ER10ChessBoardEUlRKNS2_5PieceERKNS_12basic_stringIcNS_11char_traitsIcEENS_9allocatorIcEEEESE_E_NSA_ISF_EEEC2B7v160006IJRKSF_EJOSG_EEENS_21piecewise_construct_tENS_5tupleIJDpT_EEENSN_IJDpT0_EEE, symObjAddr: 0x7838, symBinAddr: 0x100009D80, symSize: 0x54 }
  - { offsetInCU: 0x205FD, offset: 0x205FD, size: 0x8, addend: 0x0, symName: __ZNSt3__122__compressed_pair_elemIZN15ChessBoardPrintC1ER10ChessBoardEUlRKNS2_5PieceERKNS_12basic_stringIcNS_11char_traitsIcEENS_9allocatorIcEEEESE_E_Li0ELb1EEC2B7v160006IJRKSF_EJLm0EEEENS_21piecewise_construct_tENS_5tupleIJDpT_EEENS_15__tuple_indicesIJXspT0_EEEE, symObjAddr: 0x788C, symBinAddr: 0x100009DD4, symSize: 0x38 }
  - { offsetInCU: 0x20660, offset: 0x20660, size: 0x8, addend: 0x0, symName: __ZNSt3__112__tuple_leafILm0ERKZN15ChessBoardPrintC1ER10ChessBoardEUlRKNS2_5PieceERKNS_12basic_stringIcNS_11char_traitsIcEENS_9allocatorIcEEEESE_E_Lb0EE3getB7v160006Ev, symObjAddr: 0x78E8, symBinAddr: 0x100009E30, symSize: 0x18 }
  - { offsetInCU: 0x20686, offset: 0x20686, size: 0x8, addend: 0x0, symName: __ZNSt3__117__compressed_pairIPNS_10__function6__funcIZN15ChessBoardPrintC1ER10ChessBoardEUlRKNS4_5PieceERKNS_12basic_stringIcNS_11char_traitsIcEENS_9allocatorIcEEEESG_E_NSC_ISH_EEFvS8_SG_SG_EEENS_22__allocator_destructorINSC_ISK_EEEEE5firstB7v160006Ev, symObjAddr: 0x7900, symBinAddr: 0x100009E48, symSize: 0x24 }
  - { offsetInCU: 0x206AC, offset: 0x206AC, size: 0x8, addend: 0x0, symName: __ZNSt3__122__compressed_pair_elemIPNS_10__function6__funcIZN15ChessBoardPrintC1ER10ChessBoardEUlRKNS4_5PieceERKNS_12basic_stringIcNS_11char_traitsIcEENS_9allocatorIcEEEESG_E_NSC_ISH_EEFvS8_SG_SG_EEELi0ELb0EE5__getB7v160006Ev, symObjAddr: 0x7924, symBinAddr: 0x100009E6C, symSize: 0x14 }
  - { offsetInCU: 0x206D2, offset: 0x206D2, size: 0x8, addend: 0x0, symName: __ZNSt3__110unique_ptrINS_10__function6__funcIZN15ChessBoardPrintC1ER10ChessBoardEUlRKNS4_5PieceERKNS_12basic_stringIcNS_11char_traitsIcEENS_9allocatorIcEEEESG_E_NSC_ISH_EEFvS8_SG_SG_EEENS_22__allocator_destructorINSC_ISK_EEEEED2B7v160006Ev, symObjAddr: 0x7938, symBinAddr: 0x100009E80, symSize: 0x30 }
  - { offsetInCU: 0x206FC, offset: 0x206FC, size: 0x8, addend: 0x0, symName: __ZNSt3__110unique_ptrINS_10__function6__funcIZN15ChessBoardPrintC1ER10ChessBoardEUlRKNS4_5PieceERKNS_12basic_stringIcNS_11char_traitsIcEENS_9allocatorIcEEEESG_E_NSC_ISH_EEFvS8_SG_SG_EEENS_22__allocator_destructorINSC_ISK_EEEEE5resetB7v160006EPSK_, symObjAddr: 0x7968, symBinAddr: 0x100009EB0, symSize: 0x78 }
  - { offsetInCU: 0x20740, offset: 0x20740, size: 0x8, addend: 0x0, symName: __ZNSt3__117__compressed_pairIPNS_10__function6__funcIZN15ChessBoardPrintC1ER10ChessBoardEUlRKNS4_5PieceERKNS_12basic_stringIcNS_11char_traitsIcEENS_9allocatorIcEEEESG_E_NSC_ISH_EEFvS8_SG_SG_EEENS_22__allocator_destructorINSC_ISK_EEEEE6secondB7v160006Ev, symObjAddr: 0x79E0, symBinAddr: 0x100009F28, symSize: 0x28 }
  - { offsetInCU: 0x20766, offset: 0x20766, size: 0x8, addend: 0x0, symName: __ZNSt3__122__allocator_destructorINS_9allocatorINS_10__function6__funcIZN15ChessBoardPrintC1ER10ChessBoardEUlRKNS5_5PieceERKNS_12basic_stringIcNS_11char_traitsIcEENS1_IcEEEESG_E_NS1_ISH_EEFvS9_SG_SG_EEEEEEclB7v160006EPSK_, symObjAddr: 0x7A08, symBinAddr: 0x100009F50, symSize: 0x34 }
  - { offsetInCU: 0x2079A, offset: 0x2079A, size: 0x8, addend: 0x0, symName: __ZNSt3__122__compressed_pair_elemINS_22__allocator_destructorINS_9allocatorINS_10__function6__funcIZN15ChessBoardPrintC1ER10ChessBoardEUlRKNS6_5PieceERKNS_12basic_stringIcNS_11char_traitsIcEENS2_IcEEEESH_E_NS2_ISI_EEFvSA_SH_SH_EEEEEEELi1ELb0EE5__getB7v160006Ev, symObjAddr: 0x7A3C, symBinAddr: 0x100009F84, symSize: 0x14 }
  - { offsetInCU: 0x207C0, offset: 0x207C0, size: 0x8, addend: 0x0, symName: __ZNSt3__116allocator_traitsINS_9allocatorINS_10__function6__funcIZN15ChessBoardPrintC1ER10ChessBoardEUlRKNS5_5PieceERKNS_12basic_stringIcNS_11char_traitsIcEENS1_IcEEEESG_E_NS1_ISH_EEFvS9_SG_SG_EEEEEE10deallocateB7v160006ERSL_PSK_m, symObjAddr: 0x7A50, symBinAddr: 0x100009F98, symSize: 0x34 }
  - { offsetInCU: 0x20802, offset: 0x20802, size: 0x8, addend: 0x0, symName: __ZNSt3__19allocatorINS_10__function6__funcIZN15ChessBoardPrintC1ER10ChessBoardEUlRKNS4_5PieceERKNS_12basic_stringIcNS_11char_traitsIcEENS0_IcEEEESF_E_NS0_ISG_EEFvS8_SF_SF_EEEE10deallocateB7v160006EPSJ_m, symObjAddr: 0x7A84, symBinAddr: 0x100009FCC, symSize: 0x40 }
  - { offsetInCU: 0x20844, offset: 0x20844, size: 0x8, addend: 0x0, symName: __ZNSt3__110__function6__funcIZN15ChessBoardPrintC1ER10ChessBoardEUlRKNS3_5PieceERKNS_12basic_stringIcNS_11char_traitsIcEENS_9allocatorIcEEEESF_E_NSB_ISG_EEFvS7_SF_SF_EEC1B7v160006ERKSG_RKSH_, symObjAddr: 0x7AC4, symBinAddr: 0x10000A00C, symSize: 0x3C }
  - { offsetInCU: 0x2088C, offset: 0x2088C, size: 0x8, addend: 0x0, symName: __ZNSt3__110__function6__funcIZN15ChessBoardPrintC1ER10ChessBoardEUlRKNS3_5PieceERKNS_12basic_stringIcNS_11char_traitsIcEENS_9allocatorIcEEEESF_E_NSB_ISG_EEFvS7_SF_SF_EEC2B7v160006ERKSG_RKSH_, symObjAddr: 0x7B00, symBinAddr: 0x10000A048, symSize: 0x88 }
  - { offsetInCU: 0x208D4, offset: 0x208D4, size: 0x8, addend: 0x0, symName: __ZNSt3__110__function12__alloc_funcIZN15ChessBoardPrintC1ER10ChessBoardEUlRKNS3_5PieceERKNS_12basic_stringIcNS_11char_traitsIcEENS_9allocatorIcEEEESF_E_NSB_ISG_EEFvS7_SF_SF_EEC1B7v160006ERKSG_RKSH_, symObjAddr: 0x7B88, symBinAddr: 0x10000A0D0, symSize: 0x3C }
  - { offsetInCU: 0x2091A, offset: 0x2091A, size: 0x8, addend: 0x0, symName: __ZNSt3__110__function12__alloc_funcIZN15ChessBoardPrintC1ER10ChessBoardEUlRKNS3_5PieceERKNS_12basic_stringIcNS_11char_traitsIcEENS_9allocatorIcEEEESF_E_NSB_ISG_EEFvS7_SF_SF_EEC2B7v160006ERKSG_RKSH_, symObjAddr: 0x7BC4, symBinAddr: 0x10000A10C, symSize: 0x5C }
  - { offsetInCU: 0x20960, offset: 0x20960, size: 0x8, addend: 0x0, symName: __ZNSt3__117__compressed_pairIZN15ChessBoardPrintC1ER10ChessBoardEUlRKNS2_5PieceERKNS_12basic_stringIcNS_11char_traitsIcEENS_9allocatorIcEEEESE_E_NSA_ISF_EEEC1B7v160006IJRKSF_EJRKSG_EEENS_21piecewise_construct_tENS_5tupleIJDpT_EEENSO_IJDpT0_EEE, symObjAddr: 0x7C4C, symBinAddr: 0x10000A194, symSize: 0x3C }
  - { offsetInCU: 0x209CA, offset: 0x209CA, size: 0x8, addend: 0x0, symName: __ZNSt3__15tupleIJRKNS_9allocatorIZN15ChessBoardPrintC1ER10ChessBoardEUlRKNS3_5PieceERKNS_12basic_stringIcNS_11char_traitsIcEENS1_IcEEEESE_E_EEEEC1B7v160006INS_4_AndELi0EEESI_, symObjAddr: 0x7C88, symBinAddr: 0x10000A1D0, symSize: 0x34 }
  - { offsetInCU: 0x20A12, offset: 0x20A12, size: 0x8, addend: 0x0, symName: __ZNSt3__15tupleIJRKNS_9allocatorIZN15ChessBoardPrintC1ER10ChessBoardEUlRKNS3_5PieceERKNS_12basic_stringIcNS_11char_traitsIcEENS1_IcEEEESE_E_EEEEC2B7v160006INS_4_AndELi0EEESI_, symObjAddr: 0x7CBC, symBinAddr: 0x10000A204, symSize: 0x34 }
  - { offsetInCU: 0x20A5A, offset: 0x20A5A, size: 0x8, addend: 0x0, symName: __ZNSt3__112__tuple_implINS_15__tuple_indicesIJLm0EEEEJRKNS_9allocatorIZN15ChessBoardPrintC1ER10ChessBoardEUlRKNS5_5PieceERKNS_12basic_stringIcNS_11char_traitsIcEENS3_IcEEEESG_E_EEEEC1B7v160006IJLm0EEJSK_EJEJEJSK_EEENS1_IJXspT_EEEENS_13__tuple_typesIJDpT0_EEENS1_IJXspT1_EEEENSO_IJDpT2_EEEDpOT3_, symObjAddr: 0x7CF0, symBinAddr: 0x10000A238, symSize: 0x34 }
  - { offsetInCU: 0x20AEF, offset: 0x20AEF, size: 0x8, addend: 0x0, symName: __ZNSt3__112__tuple_implINS_15__tuple_indicesIJLm0EEEEJRKNS_9allocatorIZN15ChessBoardPrintC1ER10ChessBoardEUlRKNS5_5PieceERKNS_12basic_stringIcNS_11char_traitsIcEENS3_IcEEEESG_E_EEEEC2B7v160006IJLm0EEJSK_EJEJEJSK_EEENS1_IJXspT_EEEENS_13__tuple_typesIJDpT0_EEENS1_IJXspT1_EEEENSO_IJDpT2_EEEDpOT3_, symObjAddr: 0x7D24, symBinAddr: 0x10000A26C, symSize: 0x34 }
  - { offsetInCU: 0x20B84, offset: 0x20B84, size: 0x8, addend: 0x0, symName: __ZNSt3__112__tuple_leafILm0ERKNS_9allocatorIZN15ChessBoardPrintC1ER10ChessBoardEUlRKNS3_5PieceERKNS_12basic_stringIcNS_11char_traitsIcEENS1_IcEEEESE_E_EELb0EEC2B7v160006ISI_vEEOT_, symObjAddr: 0x7D58, symBinAddr: 0x10000A2A0, symSize: 0x20 }
  - { offsetInCU: 0x20BC7, offset: 0x20BC7, size: 0x8, addend: 0x0, symName: __ZNSt3__117__compressed_pairIZN15ChessBoardPrintC1ER10ChessBoardEUlRKNS2_5PieceERKNS_12basic_stringIcNS_11char_traitsIcEENS_9allocatorIcEEEESE_E_NSA_ISF_EEEC2B7v160006IJRKSF_EJRKSG_EEENS_21piecewise_construct_tENS_5tupleIJDpT_EEENSO_IJDpT0_EEE, symObjAddr: 0x7D78, symBinAddr: 0x10000A2C0, symSize: 0x54 }
  - { offsetInCU: 0x20C31, offset: 0x20C31, size: 0x8, addend: 0x0, symName: __ZNSt3__122__compressed_pair_elemINS_9allocatorIZN15ChessBoardPrintC1ER10ChessBoardEUlRKNS3_5PieceERKNS_12basic_stringIcNS_11char_traitsIcEENS1_IcEEEESE_E_EELi1ELb1EEC2B7v160006IJRKSG_EJLm0EEEENS_21piecewise_construct_tENS_5tupleIJDpT_EEENS_15__tuple_indicesIJXspT0_EEEE, symObjAddr: 0x7DCC, symBinAddr: 0x10000A314, symSize: 0x38 }
  - { offsetInCU: 0x20C94, offset: 0x20C94, size: 0x8, addend: 0x0, symName: __ZNSt3__112__tuple_leafILm0ERKNS_9allocatorIZN15ChessBoardPrintC1ER10ChessBoardEUlRKNS3_5PieceERKNS_12basic_stringIcNS_11char_traitsIcEENS1_IcEEEESE_E_EELb0EE3getB7v160006Ev, symObjAddr: 0x7E28, symBinAddr: 0x10000A370, symSize: 0x18 }
  - { offsetInCU: 0x20CBA, offset: 0x20CBA, size: 0x8, addend: 0x0, symName: __ZNSt3__110__function12__alloc_funcIZN15ChessBoardPrintC1ER10ChessBoardEUlRKNS3_5PieceERKNS_12basic_stringIcNS_11char_traitsIcEENS_9allocatorIcEEEESF_E_NSB_ISG_EEFvS7_SF_SF_EE7destroyB7v160006Ev, symObjAddr: 0x7E40, symBinAddr: 0x10000A388, symSize: 0x10 }
  - { offsetInCU: 0x20CE0, offset: 0x20CE0, size: 0x8, addend: 0x0, symName: __ZNSt3__110__function12__alloc_funcIZN15ChessBoardPrintC1ER10ChessBoardEUlRKNS3_5PieceERKNS_12basic_stringIcNS_11char_traitsIcEENS_9allocatorIcEEEESF_E_NSB_ISG_EEFvS7_SF_SF_EEclB7v160006ES7_SF_SF_, symObjAddr: 0x7E50, symBinAddr: 0x10000A398, symSize: 0x40 }
  - { offsetInCU: 0x20D30, offset: 0x20D30, size: 0x8, addend: 0x0, symName: __ZNSt3__128__invoke_void_return_wrapperIvLb1EE6__callIJRZN15ChessBoardPrintC1ER10ChessBoardEUlRKNS4_5PieceERKNS_12basic_stringIcNS_11char_traitsIcEENS_9allocatorIcEEEESG_E_S8_SG_SG_EEEvDpOT_, symObjAddr: 0x7E90, symBinAddr: 0x10000A3D8, symSize: 0x3C }
  - { offsetInCU: 0x20D9B, offset: 0x20D9B, size: 0x8, addend: 0x0, symName: __ZNSt3__117__compressed_pairIZN15ChessBoardPrintC1ER10ChessBoardEUlRKNS2_5PieceERKNS_12basic_stringIcNS_11char_traitsIcEENS_9allocatorIcEEEESE_E_NSA_ISF_EEE5firstB7v160006Ev, symObjAddr: 0x7ECC, symBinAddr: 0x10000A414, symSize: 0x24 }
  - { offsetInCU: 0x20DC6, offset: 0x20DC6, size: 0x8, addend: 0x0, symName: __ZZN15ChessBoardPrintC1ER10ChessBoardENKUlRKNS0_5PieceERKNSt3__112basic_stringIcNS5_11char_traitsIcEENS5_9allocatorIcEEEESD_E_clES4_SD_SD_, symObjAddr: 0x7F2C, symBinAddr: 0x10000A474, symSize: 0xEC }
  - { offsetInCU: 0x20E1A, offset: 0x20E1A, size: 0x8, addend: 0x0, symName: __ZNKSt3__112basic_stringIcNS_11char_traitsIcEENS_9allocatorIcEEE4dataB7v160006Ev, symObjAddr: 0x8250, symBinAddr: 0x10000A798, symSize: 0x28 }
  - { offsetInCU: 0x20E40, offset: 0x20E40, size: 0x8, addend: 0x0, symName: __ZNKSt3__112basic_stringIcNS_11char_traitsIcEENS_9allocatorIcEEE4sizeB7v160006Ev, symObjAddr: 0x8278, symBinAddr: 0x10000A7C0, symSize: 0x54 }
  - { offsetInCU: 0x20E84, offset: 0x20E84, size: 0x8, addend: 0x0, symName: __ZNKSt3__113basic_ostreamIcNS_11char_traitsIcEEE6sentrycvbB7v160006Ev, symObjAddr: 0x82CC, symBinAddr: 0x10000A814, symSize: 0x1C }
  - { offsetInCU: 0x20EAA, offset: 0x20EAA, size: 0x8, addend: 0x0, symName: __ZNSt3__119ostreambuf_iteratorIcNS_11char_traitsIcEEEC1B7v160006ERNS_13basic_ostreamIcS2_EE, symObjAddr: 0x8528, symBinAddr: 0x10000AA70, symSize: 0x34 }
  - { offsetInCU: 0x20EE2, offset: 0x20EE2, size: 0x8, addend: 0x0, symName: __ZNKSt3__18ios_base5flagsB7v160006Ev, symObjAddr: 0x855C, symBinAddr: 0x10000AAA4, symSize: 0x18 }
  - { offsetInCU: 0x20F0A, offset: 0x20F0A, size: 0x8, addend: 0x0, symName: __ZNKSt3__19basic_iosIcNS_11char_traitsIcEEE4fillB7v160006Ev, symObjAddr: 0x8574, symBinAddr: 0x10000AABC, symSize: 0x64 }
  - { offsetInCU: 0x20F32, offset: 0x20F32, size: 0x8, addend: 0x0, symName: __ZNKSt3__119ostreambuf_iteratorIcNS_11char_traitsIcEEE6failedB7v160006Ev, symObjAddr: 0x85D8, symBinAddr: 0x10000AB20, symSize: 0x24 }
  - { offsetInCU: 0x20F58, offset: 0x20F58, size: 0x8, addend: 0x0, symName: __ZNSt3__19basic_iosIcNS_11char_traitsIcEEE8setstateB7v160006Ej, symObjAddr: 0x85FC, symBinAddr: 0x10000AB44, symSize: 0x2C }
  - { offsetInCU: 0x20F8D, offset: 0x20F8D, size: 0x8, addend: 0x0, symName: __ZNKSt3__18ios_base5widthB7v160006Ev, symObjAddr: 0x8628, symBinAddr: 0x10000AB70, symSize: 0x18 }
  - { offsetInCU: 0x20FB5, offset: 0x20FB5, size: 0x8, addend: 0x0, symName: __ZNSt3__115basic_streambufIcNS_11char_traitsIcEEE5sputnB7v160006EPKcl, symObjAddr: 0x8640, symBinAddr: 0x10000AB88, symSize: 0x3C }
  - { offsetInCU: 0x20FF7, offset: 0x20FF7, size: 0x8, addend: 0x0, symName: __ZNSt3__112basic_stringIcNS_11char_traitsIcEENS_9allocatorIcEEEC1B7v160006Emc, symObjAddr: 0x867C, symBinAddr: 0x10000ABC4, symSize: 0x3C }
  - { offsetInCU: 0x2103F, offset: 0x2103F, size: 0x8, addend: 0x0, symName: __ZNSt3__18ios_base5widthB7v160006El, symObjAddr: 0x86B8, symBinAddr: 0x10000AC00, symSize: 0x2C }
  - { offsetInCU: 0x21085, offset: 0x21085, size: 0x8, addend: 0x0, symName: __ZNSt3__112basic_stringIcNS_11char_traitsIcEENS_9allocatorIcEEEC2B7v160006Emc, symObjAddr: 0x86E4, symBinAddr: 0x10000AC2C, symSize: 0x54 }
  - { offsetInCU: 0x210CD, offset: 0x210CD, size: 0x8, addend: 0x0, symName: __ZNSt3__117__compressed_pairINS_12basic_stringIcNS_11char_traitsIcEENS_9allocatorIcEEE5__repES5_EC1B7v160006INS_18__default_init_tagESA_EEOT_OT0_, symObjAddr: 0x8738, symBinAddr: 0x10000AC80, symSize: 0x3C }
  - { offsetInCU: 0x21125, offset: 0x21125, size: 0x8, addend: 0x0, symName: __ZNSt3__117__compressed_pairINS_12basic_stringIcNS_11char_traitsIcEENS_9allocatorIcEEE5__repES5_EC2B7v160006INS_18__default_init_tagESA_EEOT_OT0_, symObjAddr: 0x8784, symBinAddr: 0x10000ACCC, symSize: 0x3C }
  - { offsetInCU: 0x2117D, offset: 0x2117D, size: 0x8, addend: 0x0, symName: __ZNSt3__122__compressed_pair_elemINS_12basic_stringIcNS_11char_traitsIcEENS_9allocatorIcEEE5__repELi0ELb0EEC2B7v160006ENS_18__default_init_tagE, symObjAddr: 0x87C0, symBinAddr: 0x10000AD08, symSize: 0x14 }
  - { offsetInCU: 0x211B1, offset: 0x211B1, size: 0x8, addend: 0x0, symName: __ZNSt3__122__compressed_pair_elemINS_9allocatorIcEELi1ELb1EEC2B7v160006ENS_18__default_init_tagE, symObjAddr: 0x87D4, symBinAddr: 0x10000AD1C, symSize: 0x2C }
  - { offsetInCU: 0x211E5, offset: 0x211E5, size: 0x8, addend: 0x0, symName: __ZNSt3__19allocatorIcEC2B7v160006Ev, symObjAddr: 0x8800, symBinAddr: 0x10000AD48, symSize: 0x2C }
  - { offsetInCU: 0x2120F, offset: 0x2120F, size: 0x8, addend: 0x0, symName: __ZNSt3__116__non_trivial_ifILb1ENS_9allocatorIcEEEC2B7v160006Ev, symObjAddr: 0x882C, symBinAddr: 0x10000AD74, symSize: 0x14 }
  - { offsetInCU: 0x21239, offset: 0x21239, size: 0x8, addend: 0x0, symName: __ZNSt3__119ostreambuf_iteratorIcNS_11char_traitsIcEEEC2B7v160006ERNS_13basic_ostreamIcS2_EE, symObjAddr: 0x8840, symBinAddr: 0x10000AD88, symSize: 0x54 }
  - { offsetInCU: 0x21271, offset: 0x21271, size: 0x8, addend: 0x0, symName: __ZNKSt3__19basic_iosIcNS_11char_traitsIcEEE5rdbufB7v160006Ev, symObjAddr: 0x8894, symBinAddr: 0x10000ADDC, symSize: 0x24 }
  - { offsetInCU: 0x21299, offset: 0x21299, size: 0x8, addend: 0x0, symName: __ZNKSt3__18ios_base5rdbufB7v160006Ev, symObjAddr: 0x88B8, symBinAddr: 0x10000AE00, symSize: 0x18 }
  - { offsetInCU: 0x212BF, offset: 0x212BF, size: 0x8, addend: 0x0, symName: __ZNSt3__111char_traitsIcE11eq_int_typeEii, symObjAddr: 0x88D0, symBinAddr: 0x10000AE18, symSize: 0x28 }
  - { offsetInCU: 0x212F0, offset: 0x212F0, size: 0x8, addend: 0x0, symName: __ZNSt3__111char_traitsIcE3eofEv, symObjAddr: 0x88F8, symBinAddr: 0x10000AE40, symSize: 0x8 }
  - { offsetInCU: 0x21304, offset: 0x21304, size: 0x8, addend: 0x0, symName: __ZNKSt3__19basic_iosIcNS_11char_traitsIcEEE5widenB7v160006Ec, symObjAddr: 0x8900, symBinAddr: 0x10000AE48, symSize: 0x84 }
  - { offsetInCU: 0x21372, offset: 0x21372, size: 0x8, addend: 0x0, symName: __ZNKSt3__15ctypeIcE5widenB7v160006Ec, symObjAddr: 0x89B0, symBinAddr: 0x10000AEF8, symSize: 0x38 }
  - { offsetInCU: 0x213A7, offset: 0x213A7, size: 0x8, addend: 0x0, symName: __ZNSt3__18ios_base8setstateB7v160006Ej, symObjAddr: 0x89E8, symBinAddr: 0x10000AF30, symSize: 0x34 }
  - { offsetInCU: 0x213DE, offset: 0x213DE, size: 0x8, addend: 0x0, symName: __ZNKSt3__112basic_stringIcNS_11char_traitsIcEENS_9allocatorIcEEE13__get_pointerB7v160006Ev, symObjAddr: 0x8A30, symBinAddr: 0x10000AF78, symSize: 0x54 }
  - { offsetInCU: 0x21404, offset: 0x21404, size: 0x8, addend: 0x0, symName: __ZNKSt3__112basic_stringIcNS_11char_traitsIcEENS_9allocatorIcEEE9__is_longB7v160006Ev, symObjAddr: 0x8A84, symBinAddr: 0x10000AFCC, symSize: 0x38 }
  - { offsetInCU: 0x2142A, offset: 0x2142A, size: 0x8, addend: 0x0, symName: __ZNKSt3__112basic_stringIcNS_11char_traitsIcEENS_9allocatorIcEEE18__get_long_pointerB7v160006Ev, symObjAddr: 0x8ABC, symBinAddr: 0x10000B004, symSize: 0x28 }
  - { offsetInCU: 0x21450, offset: 0x21450, size: 0x8, addend: 0x0, symName: __ZNKSt3__112basic_stringIcNS_11char_traitsIcEENS_9allocatorIcEEE19__get_short_pointerB7v160006Ev, symObjAddr: 0x8AE4, symBinAddr: 0x10000B02C, symSize: 0x28 }
  - { offsetInCU: 0x21476, offset: 0x21476, size: 0x8, addend: 0x0, symName: __ZNKSt3__117__compressed_pairINS_12basic_stringIcNS_11char_traitsIcEENS_9allocatorIcEEE5__repES5_E5firstB7v160006Ev, symObjAddr: 0x8B0C, symBinAddr: 0x10000B054, symSize: 0x24 }
  - { offsetInCU: 0x2149C, offset: 0x2149C, size: 0x8, addend: 0x0, symName: __ZNKSt3__122__compressed_pair_elemINS_12basic_stringIcNS_11char_traitsIcEENS_9allocatorIcEEE5__repELi0ELb0EE5__getB7v160006Ev, symObjAddr: 0x8B30, symBinAddr: 0x10000B078, symSize: 0x14 }
  - { offsetInCU: 0x214C2, offset: 0x214C2, size: 0x8, addend: 0x0, symName: __ZNSt3__114pointer_traitsIPKcE10pointer_toB7v160006ERS1_, symObjAddr: 0x8B44, symBinAddr: 0x10000B08C, symSize: 0x14 }
  - { offsetInCU: 0x214E5, offset: 0x214E5, size: 0x8, addend: 0x0, symName: __ZNKSt3__112basic_stringIcNS_11char_traitsIcEENS_9allocatorIcEEE15__get_long_sizeB7v160006Ev, symObjAddr: 0x8B58, symBinAddr: 0x10000B0A0, symSize: 0x28 }
  - { offsetInCU: 0x2150B, offset: 0x2150B, size: 0x8, addend: 0x0, symName: __ZNKSt3__112basic_stringIcNS_11char_traitsIcEENS_9allocatorIcEEE16__get_short_sizeB7v160006Ev, symObjAddr: 0x8B80, symBinAddr: 0x10000B0C8, symSize: 0x34 }
  - { offsetInCU: 0x21531, offset: 0x21531, size: 0x8, addend: 0x0, symName: __ZNSt3__122__compressed_pair_elemIZN15ChessBoardPrintC1ER10ChessBoardEUlRKNS2_5PieceERKNS_12basic_stringIcNS_11char_traitsIcEENS_9allocatorIcEEEESE_E_Li0ELb1EE5__getB7v160006Ev, symObjAddr: 0x8BB4, symBinAddr: 0x10000B0FC, symSize: 0x14 }
  - { offsetInCU: 0x2158D, offset: 0x2158D, size: 0x8, addend: 0x0, symName: __ZNKSt9type_infoeqB7v160006ERKS_, symObjAddr: 0x8BC8, symBinAddr: 0x10000B110, symSize: 0xDC }
  - { offsetInCU: 0x2162B, offset: 0x2162B, size: 0x8, addend: 0x0, symName: __ZNSt27__type_info_implementations30__non_unique_arm_rtti_bit_impl21__is_type_name_uniqueB7v160006Em, symObjAddr: 0x8CA4, symBinAddr: 0x10000B1EC, symSize: 0x20 }
  - { offsetInCU: 0x2164F, offset: 0x2164F, size: 0x8, addend: 0x0, symName: __ZNSt3__110__function12__value_funcIFvRKN10ChessBoard5PieceERKNS_12basic_stringIcNS_11char_traitsIcEENS_9allocatorIcEEEESD_EE4swapB7v160006ERSF_, symObjAddr: 0x8CC4, symBinAddr: 0x10000B20C, symSize: 0x304 }
  - { offsetInCU: 0x216A8, offset: 0x216A8, size: 0x8, addend: 0x0, symName: __ZNSt3__110__function12__value_funcIFvRKN10ChessBoard5PieceERKNS_12basic_stringIcNS_11char_traitsIcEENS_9allocatorIcEEEESD_EE9__as_baseEPv, symObjAddr: 0x8FC8, symBinAddr: 0x10000B510, symSize: 0x14 }
  - { offsetInCU: 0x216CC, offset: 0x216CC, size: 0x8, addend: 0x0, symName: __ZNSt3__18functionIFvRKN10ChessBoard5PieceERKNS_12basic_stringIcNS_11char_traitsIcEENS_9allocatorIcEEEEEEC1IZN15ChessBoardPrintC1ERS1_EUlS4_SC_E_vEET_, symObjAddr: 0x9018, symBinAddr: 0x10000B560, symSize: 0x2C }
  - { offsetInCU: 0x21711, offset: 0x21711, size: 0x8, addend: 0x0, symName: __ZNSt3__18functionIFvRKN10ChessBoard5PieceERKNS_12basic_stringIcNS_11char_traitsIcEENS_9allocatorIcEEEEEE4swapERSE_, symObjAddr: 0x9044, symBinAddr: 0x10000B58C, symSize: 0x2C }
  - { offsetInCU: 0x21748, offset: 0x21748, size: 0x8, addend: 0x0, symName: __ZNSt3__18functionIFvRKN10ChessBoard5PieceERKNS_12basic_stringIcNS_11char_traitsIcEENS_9allocatorIcEEEEEEC2IZN15ChessBoardPrintC1ERS1_EUlS4_SC_E_vEET_, symObjAddr: 0x9070, symBinAddr: 0x10000B5B8, symSize: 0x30 }
  - { offsetInCU: 0x2178D, offset: 0x2178D, size: 0x8, addend: 0x0, symName: __ZNSt3__110__function12__value_funcIFvRKN10ChessBoard5PieceERKNS_12basic_stringIcNS_11char_traitsIcEENS_9allocatorIcEEEEEEC1B7v160006IZN15ChessBoardPrintC1ERS2_EUlS5_SD_E_vEEOT_, symObjAddr: 0x90A0, symBinAddr: 0x10000B5E8, symSize: 0x50 }
  - { offsetInCU: 0x217D0, offset: 0x217D0, size: 0x8, addend: 0x0, symName: __ZNSt3__19allocatorIZN15ChessBoardPrintC1ER10ChessBoardEUlRKNS2_5PieceERKNS_12basic_stringIcNS_11char_traitsIcEENS0_IcEEEEE_EC1B7v160006Ev, symObjAddr: 0x90F0, symBinAddr: 0x10000B638, symSize: 0x2C }
  - { offsetInCU: 0x217FA, offset: 0x217FA, size: 0x8, addend: 0x0, symName: __ZNSt3__110__function12__value_funcIFvRKN10ChessBoard5PieceERKNS_12basic_stringIcNS_11char_traitsIcEENS_9allocatorIcEEEEEEC1B7v160006IZN15ChessBoardPrintC1ERS2_EUlS5_SD_E_NS9_ISJ_EEEEOT_RKT0_, symObjAddr: 0x911C, symBinAddr: 0x10000B664, symSize: 0x3C }
  - { offsetInCU: 0x21854, offset: 0x21854, size: 0x8, addend: 0x0, symName: __ZNSt3__19allocatorIZN15ChessBoardPrintC1ER10ChessBoardEUlRKNS2_5PieceERKNS_12basic_stringIcNS_11char_traitsIcEENS0_IcEEEEE_EC2B7v160006Ev, symObjAddr: 0x9158, symBinAddr: 0x10000B6A0, symSize: 0x2C }
  - { offsetInCU: 0x2187E, offset: 0x2187E, size: 0x8, addend: 0x0, symName: __ZNSt3__116__non_trivial_ifILb1ENS_9allocatorIZN15ChessBoardPrintC1ER10ChessBoardEUlRKNS3_5PieceERKNS_12basic_stringIcNS_11char_traitsIcEENS1_IcEEEEE_EEEC2B7v160006Ev, symObjAddr: 0x9184, symBinAddr: 0x10000B6CC, symSize: 0x14 }
  - { offsetInCU: 0x218A8, offset: 0x218A8, size: 0x8, addend: 0x0, symName: __ZNSt3__110__function12__value_funcIFvRKN10ChessBoard5PieceERKNS_12basic_stringIcNS_11char_traitsIcEENS_9allocatorIcEEEEEEC2B7v160006IZN15ChessBoardPrintC1ERS2_EUlS5_SD_E_NS9_ISJ_EEEEOT_RKT0_, symObjAddr: 0x9198, symBinAddr: 0x10000B6E0, symSize: 0x94 }
  - { offsetInCU: 0x2194F, offset: 0x2194F, size: 0x8, addend: 0x0, symName: __ZNSt3__19allocatorINS_10__function6__funcIZN15ChessBoardPrintC1ER10ChessBoardEUlRKNS4_5PieceERKNS_12basic_stringIcNS_11char_traitsIcEENS0_IcEEEEE_NS0_ISG_EEFvS8_SF_EEEEC1B7v160006ISG_EERKNS0_IT_EE, symObjAddr: 0x9244, symBinAddr: 0x10000B78C, symSize: 0x34 }
  - { offsetInCU: 0x21991, offset: 0x21991, size: 0x8, addend: 0x0, symName: __ZNSt3__19allocatorIZN15ChessBoardPrintC1ER10ChessBoardEUlRKNS2_5PieceERKNS_12basic_stringIcNS_11char_traitsIcEENS0_IcEEEEE_EC1B7v160006INS_10__function6__funcISE_SF_FvS6_SD_EEEEERKNS0_IT_EE, symObjAddr: 0x9278, symBinAddr: 0x10000B7C0, symSize: 0x34 }
  - { offsetInCU: 0x219CE, offset: 0x219CE, size: 0x8, addend: 0x0, symName: __ZNSt3__110__function6__funcIZN15ChessBoardPrintC1ER10ChessBoardEUlRKNS3_5PieceERKNS_12basic_stringIcNS_11char_traitsIcEENS_9allocatorIcEEEEE_NSB_ISG_EEFvS7_SF_EEC1B7v160006EOSG_OSH_, symObjAddr: 0x92AC, symBinAddr: 0x10000B7F4, symSize: 0x3C }
  - { offsetInCU: 0x21A16, offset: 0x21A16, size: 0x8, addend: 0x0, symName: __ZNSt3__19allocatorINS_10__function6__funcIZN15ChessBoardPrintC1ER10ChessBoardEUlRKNS4_5PieceERKNS_12basic_stringIcNS_11char_traitsIcEENS0_IcEEEEE_NS0_ISG_EEFvS8_SF_EEEEC2B7v160006ISG_EERKNS0_IT_EE, symObjAddr: 0x92E8, symBinAddr: 0x10000B830, symSize: 0x30 }
  - { offsetInCU: 0x21A53, offset: 0x21A53, size: 0x8, addend: 0x0, symName: __ZNSt3__116__non_trivial_ifILb1ENS_9allocatorINS_10__function6__funcIZN15ChessBoardPrintC1ER10ChessBoardEUlRKNS5_5PieceERKNS_12basic_stringIcNS_11char_traitsIcEENS1_IcEEEEE_NS1_ISH_EEFvS9_SG_EEEEEEC2B7v160006Ev, symObjAddr: 0x9318, symBinAddr: 0x10000B860, symSize: 0x14 }
  - { offsetInCU: 0x21A7D, offset: 0x21A7D, size: 0x8, addend: 0x0, symName: __ZNSt3__19allocatorIZN15ChessBoardPrintC1ER10ChessBoardEUlRKNS2_5PieceERKNS_12basic_stringIcNS_11char_traitsIcEENS0_IcEEEEE_EC2B7v160006INS_10__function6__funcISE_SF_FvS6_SD_EEEEERKNS0_IT_EE, symObjAddr: 0x932C, symBinAddr: 0x10000B874, symSize: 0x30 }
  - { offsetInCU: 0x21ABA, offset: 0x21ABA, size: 0x8, addend: 0x0, symName: __ZNSt3__110__function6__funcIZN15ChessBoardPrintC1ER10ChessBoardEUlRKNS3_5PieceERKNS_12basic_stringIcNS_11char_traitsIcEENS_9allocatorIcEEEEE_NSB_ISG_EEFvS7_SF_EEC2B7v160006EOSG_OSH_, symObjAddr: 0x935C, symBinAddr: 0x10000B8A4, symSize: 0x88 }
  - { offsetInCU: 0x21B02, offset: 0x21B02, size: 0x8, addend: 0x0, symName: __ZNSt3__110__function6__baseIFvRKN10ChessBoard5PieceERKNS_12basic_stringIcNS_11char_traitsIcEENS_9allocatorIcEEEEEEC2B7v160006Ev, symObjAddr: 0x93E4, symBinAddr: 0x10000B92C, symSize: 0x24 }
  - { offsetInCU: 0x21B2C, offset: 0x21B2C, size: 0x8, addend: 0x0, symName: __ZNSt3__110__function12__alloc_funcIZN15ChessBoardPrintC1ER10ChessBoardEUlRKNS3_5PieceERKNS_12basic_stringIcNS_11char_traitsIcEENS_9allocatorIcEEEEE_NSB_ISG_EEFvS7_SF_EEC1B7v160006EOSG_OSH_, symObjAddr: 0x9408, symBinAddr: 0x10000B950, symSize: 0x3C }
  - { offsetInCU: 0x21B72, offset: 0x21B72, size: 0x8, addend: 0x0, symName: __ZNSt3__110__function6__baseIFvRKN10ChessBoard5PieceERKNS_12basic_stringIcNS_11char_traitsIcEENS_9allocatorIcEEEEEED2Ev, symObjAddr: 0x9444, symBinAddr: 0x10000B98C, symSize: 0x14 }
  - { offsetInCU: 0x21B9C, offset: 0x21B9C, size: 0x8, addend: 0x0, symName: __ZNSt3__110__function6__funcIZN15ChessBoardPrintC1ER10ChessBoardEUlRKNS3_5PieceERKNS_12basic_stringIcNS_11char_traitsIcEENS_9allocatorIcEEEEE_NSB_ISG_EEFvS7_SF_EED1Ev, symObjAddr: 0x9458, symBinAddr: 0x10000B9A0, symSize: 0x2C }
  - { offsetInCU: 0x21BC9, offset: 0x21BC9, size: 0x8, addend: 0x0, symName: __ZNSt3__110__function6__funcIZN15ChessBoardPrintC1ER10ChessBoardEUlRKNS3_5PieceERKNS_12basic_stringIcNS_11char_traitsIcEENS_9allocatorIcEEEEE_NSB_ISG_EEFvS7_SF_EED0Ev, symObjAddr: 0x9484, symBinAddr: 0x10000B9CC, symSize: 0x30 }
  - { offsetInCU: 0x21BF6, offset: 0x21BF6, size: 0x8, addend: 0x0, symName: __ZNKSt3__110__function6__funcIZN15ChessBoardPrintC1ER10ChessBoardEUlRKNS3_5PieceERKNS_12basic_stringIcNS_11char_traitsIcEENS_9allocatorIcEEEEE_NSB_ISG_EEFvS7_SF_EE7__cloneEv, symObjAddr: 0x94B4, symBinAddr: 0x10000B9FC, symSize: 0xFC }
  - { offsetInCU: 0x21C48, offset: 0x21C48, size: 0x8, addend: 0x0, symName: __ZNKSt3__110__function6__funcIZN15ChessBoardPrintC1ER10ChessBoardEUlRKNS3_5PieceERKNS_12basic_stringIcNS_11char_traitsIcEENS_9allocatorIcEEEEE_NSB_ISG_EEFvS7_SF_EE7__cloneEPNS0_6__baseISI_EE, symObjAddr: 0x95B0, symBinAddr: 0x10000BAF8, symSize: 0x58 }
  - { offsetInCU: 0x21C7F, offset: 0x21C7F, size: 0x8, addend: 0x0, symName: __ZNSt3__110__function6__funcIZN15ChessBoardPrintC1ER10ChessBoardEUlRKNS3_5PieceERKNS_12basic_stringIcNS_11char_traitsIcEENS_9allocatorIcEEEEE_NSB_ISG_EEFvS7_SF_EE7destroyEv, symObjAddr: 0x9608, symBinAddr: 0x10000BB50, symSize: 0x28 }
  - { offsetInCU: 0x21CA7, offset: 0x21CA7, size: 0x8, addend: 0x0, symName: __ZNSt3__110__function6__funcIZN15ChessBoardPrintC1ER10ChessBoardEUlRKNS3_5PieceERKNS_12basic_stringIcNS_11char_traitsIcEENS_9allocatorIcEEEEE_NSB_ISG_EEFvS7_SF_EE18destroy_deallocateEv, symObjAddr: 0x9630, symBinAddr: 0x10000BB78, symSize: 0x58 }
  - { offsetInCU: 0x21CEA, offset: 0x21CEA, size: 0x8, addend: 0x0, symName: __ZNSt3__110__function6__funcIZN15ChessBoardPrintC1ER10ChessBoardEUlRKNS3_5PieceERKNS_12basic_stringIcNS_11char_traitsIcEENS_9allocatorIcEEEEE_NSB_ISG_EEFvS7_SF_EEclES7_SF_, symObjAddr: 0x9688, symBinAddr: 0x10000BBD0, symSize: 0x38 }
  - { offsetInCU: 0x21D30, offset: 0x21D30, size: 0x8, addend: 0x0, symName: __ZNKSt3__110__function6__funcIZN15ChessBoardPrintC1ER10ChessBoardEUlRKNS3_5PieceERKNS_12basic_stringIcNS_11char_traitsIcEENS_9allocatorIcEEEEE_NSB_ISG_EEFvS7_SF_EE6targetERKSt9type_info, symObjAddr: 0x96C0, symBinAddr: 0x10000BC08, symSize: 0x60 }
  - { offsetInCU: 0x21D67, offset: 0x21D67, size: 0x8, addend: 0x0, symName: __ZNKSt3__110__function6__funcIZN15ChessBoardPrintC1ER10ChessBoardEUlRKNS3_5PieceERKNS_12basic_stringIcNS_11char_traitsIcEENS_9allocatorIcEEEEE_NSB_ISG_EEFvS7_SF_EE11target_typeEv, symObjAddr: 0x9720, symBinAddr: 0x10000BC68, symSize: 0x18 }
  - { offsetInCU: 0x21D8F, offset: 0x21D8F, size: 0x8, addend: 0x0, symName: __ZNSt3__110__function6__baseIFvRKN10ChessBoard5PieceERKNS_12basic_stringIcNS_11char_traitsIcEENS_9allocatorIcEEEEEED1Ev, symObjAddr: 0x9738, symBinAddr: 0x10000BC80, symSize: 0x14 }
  - { offsetInCU: 0x21DB9, offset: 0x21DB9, size: 0x8, addend: 0x0, symName: __ZNSt3__110__function6__baseIFvRKN10ChessBoard5PieceERKNS_12basic_stringIcNS_11char_traitsIcEENS_9allocatorIcEEEEEED0Ev, symObjAddr: 0x974C, symBinAddr: 0x10000BC94, symSize: 0xC }
  - { offsetInCU: 0x21DE3, offset: 0x21DE3, size: 0x8, addend: 0x0, symName: __ZNSt3__110__function12__alloc_funcIZN15ChessBoardPrintC1ER10ChessBoardEUlRKNS3_5PieceERKNS_12basic_stringIcNS_11char_traitsIcEENS_9allocatorIcEEEEE_NSB_ISG_EEFvS7_SF_EEC2B7v160006EOSG_OSH_, symObjAddr: 0x9758, symBinAddr: 0x10000BCA0, symSize: 0x5C }
  - { offsetInCU: 0x21E29, offset: 0x21E29, size: 0x8, addend: 0x0, symName: __ZNSt3__117__compressed_pairIZN15ChessBoardPrintC1ER10ChessBoardEUlRKNS2_5PieceERKNS_12basic_stringIcNS_11char_traitsIcEENS_9allocatorIcEEEEE_NSA_ISF_EEEC1B7v160006IJOSF_EJOSG_EEENS_21piecewise_construct_tENS_5tupleIJDpT_EEENSM_IJDpT0_EEE, symObjAddr: 0x980C, symBinAddr: 0x10000BD54, symSize: 0x3C }
  - { offsetInCU: 0x21E93, offset: 0x21E93, size: 0x8, addend: 0x0, symName: __ZNSt3__15tupleIJOZN15ChessBoardPrintC1ER10ChessBoardEUlRKNS2_5PieceERKNS_12basic_stringIcNS_11char_traitsIcEENS_9allocatorIcEEEEE_EEC1B7v160006IJSF_ELi0EEEDpOT_, symObjAddr: 0x9848, symBinAddr: 0x10000BD90, symSize: 0x34 }
  - { offsetInCU: 0x21EDD, offset: 0x21EDD, size: 0x8, addend: 0x0, symName: __ZNSt3__15tupleIJOZN15ChessBoardPrintC1ER10ChessBoardEUlRKNS2_5PieceERKNS_12basic_stringIcNS_11char_traitsIcEENS_9allocatorIcEEEEE_EEC2B7v160006IJSF_ELi0EEEDpOT_, symObjAddr: 0x987C, symBinAddr: 0x10000BDC4, symSize: 0x34 }
  - { offsetInCU: 0x21F27, offset: 0x21F27, size: 0x8, addend: 0x0, symName: __ZNSt3__112__tuple_implINS_15__tuple_indicesIJLm0EEEEJOZN15ChessBoardPrintC1ER10ChessBoardEUlRKNS4_5PieceERKNS_12basic_stringIcNS_11char_traitsIcEENS_9allocatorIcEEEEE_EEC1B7v160006IJLm0EEJSI_EJEJEJSH_EEENS1_IJXspT_EEEENS_13__tuple_typesIJDpT0_EEENS1_IJXspT1_EEEENSM_IJDpT2_EEEDpOT3_, symObjAddr: 0x98B0, symBinAddr: 0x10000BDF8, symSize: 0x34 }
  - { offsetInCU: 0x21FBC, offset: 0x21FBC, size: 0x8, addend: 0x0, symName: __ZNSt3__112__tuple_implINS_15__tuple_indicesIJLm0EEEEJOZN15ChessBoardPrintC1ER10ChessBoardEUlRKNS4_5PieceERKNS_12basic_stringIcNS_11char_traitsIcEENS_9allocatorIcEEEEE_EEC2B7v160006IJLm0EEJSI_EJEJEJSH_EEENS1_IJXspT_EEEENS_13__tuple_typesIJDpT0_EEENS1_IJXspT1_EEEENSM_IJDpT2_EEEDpOT3_, symObjAddr: 0x98E4, symBinAddr: 0x10000BE2C, symSize: 0x34 }
  - { offsetInCU: 0x22051, offset: 0x22051, size: 0x8, addend: 0x0, symName: __ZNSt3__112__tuple_leafILm0EOZN15ChessBoardPrintC1ER10ChessBoardEUlRKNS2_5PieceERKNS_12basic_stringIcNS_11char_traitsIcEENS_9allocatorIcEEEEE_Lb0EEC2B7v160006ISF_vEEOT_, symObjAddr: 0x9918, symBinAddr: 0x10000BE60, symSize: 0x20 }
  - { offsetInCU: 0x22094, offset: 0x22094, size: 0x8, addend: 0x0, symName: __ZNSt3__15tupleIJONS_9allocatorIZN15ChessBoardPrintC1ER10ChessBoardEUlRKNS3_5PieceERKNS_12basic_stringIcNS_11char_traitsIcEENS1_IcEEEEE_EEEEC1B7v160006IJSG_ELi0EEEDpOT_, symObjAddr: 0x9938, symBinAddr: 0x10000BE80, symSize: 0x34 }
  - { offsetInCU: 0x220DE, offset: 0x220DE, size: 0x8, addend: 0x0, symName: __ZNSt3__15tupleIJONS_9allocatorIZN15ChessBoardPrintC1ER10ChessBoardEUlRKNS3_5PieceERKNS_12basic_stringIcNS_11char_traitsIcEENS1_IcEEEEE_EEEEC2B7v160006IJSG_ELi0EEEDpOT_, symObjAddr: 0x996C, symBinAddr: 0x10000BEB4, symSize: 0x34 }
  - { offsetInCU: 0x22128, offset: 0x22128, size: 0x8, addend: 0x0, symName: __ZNSt3__112__tuple_implINS_15__tuple_indicesIJLm0EEEEJONS_9allocatorIZN15ChessBoardPrintC1ER10ChessBoardEUlRKNS5_5PieceERKNS_12basic_stringIcNS_11char_traitsIcEENS3_IcEEEEE_EEEEC1B7v160006IJLm0EEJSJ_EJEJEJSI_EEENS1_IJXspT_EEEENS_13__tuple_typesIJDpT0_EEENS1_IJXspT1_EEEENSN_IJDpT2_EEEDpOT3_, symObjAddr: 0x99A0, symBinAddr: 0x10000BEE8, symSize: 0x34 }
  - { offsetInCU: 0x221BD, offset: 0x221BD, size: 0x8, addend: 0x0, symName: __ZNSt3__112__tuple_implINS_15__tuple_indicesIJLm0EEEEJONS_9allocatorIZN15ChessBoardPrintC1ER10ChessBoardEUlRKNS5_5PieceERKNS_12basic_stringIcNS_11char_traitsIcEENS3_IcEEEEE_EEEEC2B7v160006IJLm0EEJSJ_EJEJEJSI_EEENS1_IJXspT_EEEENS_13__tuple_typesIJDpT0_EEENS1_IJXspT1_EEEENSN_IJDpT2_EEEDpOT3_, symObjAddr: 0x99D4, symBinAddr: 0x10000BF1C, symSize: 0x34 }
  - { offsetInCU: 0x22252, offset: 0x22252, size: 0x8, addend: 0x0, symName: __ZNSt3__112__tuple_leafILm0EONS_9allocatorIZN15ChessBoardPrintC1ER10ChessBoardEUlRKNS3_5PieceERKNS_12basic_stringIcNS_11char_traitsIcEENS1_IcEEEEE_EELb0EEC2B7v160006ISG_vEEOT_, symObjAddr: 0x9A08, symBinAddr: 0x10000BF50, symSize: 0x20 }
  - { offsetInCU: 0x22295, offset: 0x22295, size: 0x8, addend: 0x0, symName: __ZNSt3__117__compressed_pairIZN15ChessBoardPrintC1ER10ChessBoardEUlRKNS2_5PieceERKNS_12basic_stringIcNS_11char_traitsIcEENS_9allocatorIcEEEEE_NSA_ISF_EEEC2B7v160006IJOSF_EJOSG_EEENS_21piecewise_construct_tENS_5tupleIJDpT_EEENSM_IJDpT0_EEE, symObjAddr: 0x9A28, symBinAddr: 0x10000BF70, symSize: 0x54 }
  - { offsetInCU: 0x222FF, offset: 0x222FF, size: 0x8, addend: 0x0, symName: __ZNSt3__122__compressed_pair_elemIZN15ChessBoardPrintC1ER10ChessBoardEUlRKNS2_5PieceERKNS_12basic_stringIcNS_11char_traitsIcEENS_9allocatorIcEEEEE_Li0ELb1EEC2B7v160006IJOSF_EJLm0EEEENS_21piecewise_construct_tENS_5tupleIJDpT_EEENS_15__tuple_indicesIJXspT0_EEEE, symObjAddr: 0x9A7C, symBinAddr: 0x10000BFC4, symSize: 0x38 }
  - { offsetInCU: 0x22362, offset: 0x22362, size: 0x8, addend: 0x0, symName: __ZNSt3__122__compressed_pair_elemINS_9allocatorIZN15ChessBoardPrintC1ER10ChessBoardEUlRKNS3_5PieceERKNS_12basic_stringIcNS_11char_traitsIcEENS1_IcEEEEE_EELi1ELb1EEC2B7v160006IJOSG_EJLm0EEEENS_21piecewise_construct_tENS_5tupleIJDpT_EEENS_15__tuple_indicesIJXspT0_EEEE, symObjAddr: 0x9AB4, symBinAddr: 0x10000BFFC, symSize: 0x38 }
  - { offsetInCU: 0x223C5, offset: 0x223C5, size: 0x8, addend: 0x0, symName: __ZNSt3__112__tuple_leafILm0EOZN15ChessBoardPrintC1ER10ChessBoardEUlRKNS2_5PieceERKNS_12basic_stringIcNS_11char_traitsIcEENS_9allocatorIcEEEEE_Lb0EE3getB7v160006Ev, symObjAddr: 0x9B10, symBinAddr: 0x10000C058, symSize: 0x18 }
  - { offsetInCU: 0x223EB, offset: 0x223EB, size: 0x8, addend: 0x0, symName: __ZNSt3__112__tuple_leafILm0EONS_9allocatorIZN15ChessBoardPrintC1ER10ChessBoardEUlRKNS3_5PieceERKNS_12basic_stringIcNS_11char_traitsIcEENS1_IcEEEEE_EELb0EE3getB7v160006Ev, symObjAddr: 0x9B4C, symBinAddr: 0x10000C094, symSize: 0x18 }
  - { offsetInCU: 0x22411, offset: 0x22411, size: 0x8, addend: 0x0, symName: __ZNSt3__110__function6__funcIZN15ChessBoardPrintC1ER10ChessBoardEUlRKNS3_5PieceERKNS_12basic_stringIcNS_11char_traitsIcEENS_9allocatorIcEEEEE_NSB_ISG_EEFvS7_SF_EED2Ev, symObjAddr: 0x9B64, symBinAddr: 0x10000C0AC, symSize: 0x2C }
  - { offsetInCU: 0x2243E, offset: 0x2243E, size: 0x8, addend: 0x0, symName: __ZNKSt3__110__function12__alloc_funcIZN15ChessBoardPrintC1ER10ChessBoardEUlRKNS3_5PieceERKNS_12basic_stringIcNS_11char_traitsIcEENS_9allocatorIcEEEEE_NSB_ISG_EEFvS7_SF_EE15__get_allocatorB7v160006Ev, symObjAddr: 0x9B90, symBinAddr: 0x10000C0D8, symSize: 0x24 }
  - { offsetInCU: 0x22464, offset: 0x22464, size: 0x8, addend: 0x0, symName: __ZNSt3__19allocatorINS_10__function6__funcIZN15ChessBoardPrintC1ER10ChessBoardEUlRKNS4_5PieceERKNS_12basic_stringIcNS_11char_traitsIcEENS0_IcEEEEE_NS0_ISG_EEFvS8_SF_EEEE8allocateB7v160006Em, symObjAddr: 0x9BB4, symBinAddr: 0x10000C0FC, symSize: 0x58 }
  - { offsetInCU: 0x224A7, offset: 0x224A7, size: 0x8, addend: 0x0, symName: __ZNSt3__122__allocator_destructorINS_9allocatorINS_10__function6__funcIZN15ChessBoardPrintC1ER10ChessBoardEUlRKNS5_5PieceERKNS_12basic_stringIcNS_11char_traitsIcEENS1_IcEEEEE_NS1_ISH_EEFvS9_SG_EEEEEEC1B7v160006ERSL_m, symObjAddr: 0x9C0C, symBinAddr: 0x10000C154, symSize: 0x3C }
  - { offsetInCU: 0x2257B, offset: 0x2257B, size: 0x8, addend: 0x0, symName: __ZNSt3__110unique_ptrINS_10__function6__funcIZN15ChessBoardPrintC1ER10ChessBoardEUlRKNS4_5PieceERKNS_12basic_stringIcNS_11char_traitsIcEENS_9allocatorIcEEEEE_NSC_ISH_EEFvS8_SG_EEENS_22__allocator_destructorINSC_ISK_EEEEEC1B7v160006ILb1EvEEPSK_NS_16__dependent_typeINS_27__unique_ptr_deleter_sfinaeISN_EEXT_EE20__good_rval_ref_typeE, symObjAddr: 0x9C48, symBinAddr: 0x10000C190, symSize: 0x3C }
  - { offsetInCU: 0x225CC, offset: 0x225CC, size: 0x8, addend: 0x0, symName: __ZNKSt3__110unique_ptrINS_10__function6__funcIZN15ChessBoardPrintC1ER10ChessBoardEUlRKNS4_5PieceERKNS_12basic_stringIcNS_11char_traitsIcEENS_9allocatorIcEEEEE_NSC_ISH_EEFvS8_SG_EEENS_22__allocator_destructorINSC_ISK_EEEEE3getB7v160006Ev, symObjAddr: 0x9C84, symBinAddr: 0x10000C1CC, symSize: 0x28 }
  - { offsetInCU: 0x225F2, offset: 0x225F2, size: 0x8, addend: 0x0, symName: __ZNKSt3__110__function12__alloc_funcIZN15ChessBoardPrintC1ER10ChessBoardEUlRKNS3_5PieceERKNS_12basic_stringIcNS_11char_traitsIcEENS_9allocatorIcEEEEE_NSB_ISG_EEFvS7_SF_EE8__targetB7v160006Ev, symObjAddr: 0x9CAC, symBinAddr: 0x10000C1F4, symSize: 0x24 }
  - { offsetInCU: 0x22618, offset: 0x22618, size: 0x8, addend: 0x0, symName: __ZNSt3__110__function6__funcIZN15ChessBoardPrintC1ER10ChessBoardEUlRKNS3_5PieceERKNS_12basic_stringIcNS_11char_traitsIcEENS_9allocatorIcEEEEE_NSB_ISG_EEFvS7_SF_EEC1B7v160006ERKSG_OSH_, symObjAddr: 0x9CD0, symBinAddr: 0x10000C218, symSize: 0x3C }
  - { offsetInCU: 0x22660, offset: 0x22660, size: 0x8, addend: 0x0, symName: __ZNSt3__110unique_ptrINS_10__function6__funcIZN15ChessBoardPrintC1ER10ChessBoardEUlRKNS4_5PieceERKNS_12basic_stringIcNS_11char_traitsIcEENS_9allocatorIcEEEEE_NSC_ISH_EEFvS8_SG_EEENS_22__allocator_destructorINSC_ISK_EEEEE7releaseB7v160006Ev, symObjAddr: 0x9D0C, symBinAddr: 0x10000C254, symSize: 0x44 }
  - { offsetInCU: 0x22695, offset: 0x22695, size: 0x8, addend: 0x0, symName: __ZNSt3__110unique_ptrINS_10__function6__funcIZN15ChessBoardPrintC1ER10ChessBoardEUlRKNS4_5PieceERKNS_12basic_stringIcNS_11char_traitsIcEENS_9allocatorIcEEEEE_NSC_ISH_EEFvS8_SG_EEENS_22__allocator_destructorINSC_ISK_EEEEED1B7v160006Ev, symObjAddr: 0x9D50, symBinAddr: 0x10000C298, symSize: 0x2C }
  - { offsetInCU: 0x226BF, offset: 0x226BF, size: 0x8, addend: 0x0, symName: __ZNKSt3__117__compressed_pairIZN15ChessBoardPrintC1ER10ChessBoardEUlRKNS2_5PieceERKNS_12basic_stringIcNS_11char_traitsIcEENS_9allocatorIcEEEEE_NSA_ISF_EEE6secondB7v160006Ev, symObjAddr: 0x9D7C, symBinAddr: 0x10000C2C4, symSize: 0x24 }
  - { offsetInCU: 0x226E5, offset: 0x226E5, size: 0x8, addend: 0x0, symName: __ZNKSt3__122__compressed_pair_elemINS_9allocatorIZN15ChessBoardPrintC1ER10ChessBoardEUlRKNS3_5PieceERKNS_12basic_stringIcNS_11char_traitsIcEENS1_IcEEEEE_EELi1ELb1EE5__getB7v160006Ev, symObjAddr: 0x9DA0, symBinAddr: 0x10000C2E8, symSize: 0x14 }
  - { offsetInCU: 0x22715, offset: 0x22715, size: 0x8, addend: 0x0, symName: __ZNSt3__116allocator_traitsINS_9allocatorINS_10__function6__funcIZN15ChessBoardPrintC1ER10ChessBoardEUlRKNS5_5PieceERKNS_12basic_stringIcNS_11char_traitsIcEENS1_IcEEEEE_NS1_ISH_EEFvS9_SG_EEEEEE8max_sizeB7v160006ISL_vEEmRKSL_, symObjAddr: 0x9DB4, symBinAddr: 0x10000C2FC, symSize: 0x24 }
  - { offsetInCU: 0x22743, offset: 0x22743, size: 0x8, addend: 0x0, symName: __ZNKSt3__19allocatorINS_10__function6__funcIZN15ChessBoardPrintC1ER10ChessBoardEUlRKNS4_5PieceERKNS_12basic_stringIcNS_11char_traitsIcEENS0_IcEEEEE_NS0_ISG_EEFvS8_SF_EEEE8max_sizeB7v160006Ev, symObjAddr: 0x9DD8, symBinAddr: 0x10000C320, symSize: 0x14 }
  - { offsetInCU: 0x22769, offset: 0x22769, size: 0x8, addend: 0x0, symName: __ZNSt3__122__allocator_destructorINS_9allocatorINS_10__function6__funcIZN15ChessBoardPrintC1ER10ChessBoardEUlRKNS5_5PieceERKNS_12basic_stringIcNS_11char_traitsIcEENS1_IcEEEEE_NS1_ISH_EEFvS9_SG_EEEEEEC2B7v160006ERSL_m, symObjAddr: 0x9DEC, symBinAddr: 0x10000C334, symSize: 0x2C }
  - { offsetInCU: 0x227AF, offset: 0x227AF, size: 0x8, addend: 0x0, symName: __ZNSt3__110unique_ptrINS_10__function6__funcIZN15ChessBoardPrintC1ER10ChessBoardEUlRKNS4_5PieceERKNS_12basic_stringIcNS_11char_traitsIcEENS_9allocatorIcEEEEE_NSC_ISH_EEFvS8_SG_EEENS_22__allocator_destructorINSC_ISK_EEEEEC2B7v160006ILb1EvEEPSK_NS_16__dependent_typeINS_27__unique_ptr_deleter_sfinaeISN_EEXT_EE20__good_rval_ref_typeE, symObjAddr: 0x9E18, symBinAddr: 0x10000C360, symSize: 0x48 }
  - { offsetInCU: 0x22800, offset: 0x22800, size: 0x8, addend: 0x0, symName: __ZNSt3__117__compressed_pairIPNS_10__function6__funcIZN15ChessBoardPrintC1ER10ChessBoardEUlRKNS4_5PieceERKNS_12basic_stringIcNS_11char_traitsIcEENS_9allocatorIcEEEEE_NSC_ISH_EEFvS8_SG_EEENS_22__allocator_destructorINSC_ISK_EEEEEC1B7v160006IRSL_SO_EEOT_OT0_, symObjAddr: 0x9E60, symBinAddr: 0x10000C3A8, symSize: 0x3C }
  - { offsetInCU: 0x22858, offset: 0x22858, size: 0x8, addend: 0x0, symName: __ZNSt3__117__compressed_pairIPNS_10__function6__funcIZN15ChessBoardPrintC1ER10ChessBoardEUlRKNS4_5PieceERKNS_12basic_stringIcNS_11char_traitsIcEENS_9allocatorIcEEEEE_NSC_ISH_EEFvS8_SG_EEENS_22__allocator_destructorINSC_ISK_EEEEEC2B7v160006IRSL_SO_EEOT_OT0_, symObjAddr: 0x9E9C, symBinAddr: 0x10000C3E4, symSize: 0x48 }
  - { offsetInCU: 0x228B0, offset: 0x228B0, size: 0x8, addend: 0x0, symName: __ZNSt3__122__compressed_pair_elemIPNS_10__function6__funcIZN15ChessBoardPrintC1ER10ChessBoardEUlRKNS4_5PieceERKNS_12basic_stringIcNS_11char_traitsIcEENS_9allocatorIcEEEEE_NSC_ISH_EEFvS8_SG_EEELi0ELb0EEC2B7v160006IRSL_vEEOT_, symObjAddr: 0x9EE4, symBinAddr: 0x10000C42C, symSize: 0x24 }
  - { offsetInCU: 0x228F2, offset: 0x228F2, size: 0x8, addend: 0x0, symName: __ZNSt3__122__compressed_pair_elemINS_22__allocator_destructorINS_9allocatorINS_10__function6__funcIZN15ChessBoardPrintC1ER10ChessBoardEUlRKNS6_5PieceERKNS_12basic_stringIcNS_11char_traitsIcEENS2_IcEEEEE_NS2_ISI_EEFvSA_SH_EEEEEEELi1ELb0EEC2B7v160006ISN_vEEOT_, symObjAddr: 0x9F08, symBinAddr: 0x10000C450, symSize: 0x24 }
  - { offsetInCU: 0x22934, offset: 0x22934, size: 0x8, addend: 0x0, symName: __ZNKSt3__117__compressed_pairIPNS_10__function6__funcIZN15ChessBoardPrintC1ER10ChessBoardEUlRKNS4_5PieceERKNS_12basic_stringIcNS_11char_traitsIcEENS_9allocatorIcEEEEE_NSC_ISH_EEFvS8_SG_EEENS_22__allocator_destructorINSC_ISK_EEEEE5firstB7v160006Ev, symObjAddr: 0x9F2C, symBinAddr: 0x10000C474, symSize: 0x24 }
  - { offsetInCU: 0x2295A, offset: 0x2295A, size: 0x8, addend: 0x0, symName: __ZNKSt3__122__compressed_pair_elemIPNS_10__function6__funcIZN15ChessBoardPrintC1ER10ChessBoardEUlRKNS4_5PieceERKNS_12basic_stringIcNS_11char_traitsIcEENS_9allocatorIcEEEEE_NSC_ISH_EEFvS8_SG_EEELi0ELb0EE5__getB7v160006Ev, symObjAddr: 0x9F50, symBinAddr: 0x10000C498, symSize: 0x14 }
  - { offsetInCU: 0x22980, offset: 0x22980, size: 0x8, addend: 0x0, symName: __ZNKSt3__117__compressed_pairIZN15ChessBoardPrintC1ER10ChessBoardEUlRKNS2_5PieceERKNS_12basic_stringIcNS_11char_traitsIcEENS_9allocatorIcEEEEE_NSA_ISF_EEE5firstB7v160006Ev, symObjAddr: 0x9F64, symBinAddr: 0x10000C4AC, symSize: 0x24 }
  - { offsetInCU: 0x229A6, offset: 0x229A6, size: 0x8, addend: 0x0, symName: __ZNKSt3__122__compressed_pair_elemIZN15ChessBoardPrintC1ER10ChessBoardEUlRKNS2_5PieceERKNS_12basic_stringIcNS_11char_traitsIcEENS_9allocatorIcEEEEE_Li0ELb1EE5__getB7v160006Ev, symObjAddr: 0x9F88, symBinAddr: 0x10000C4D0, symSize: 0x14 }
  - { offsetInCU: 0x229CC, offset: 0x229CC, size: 0x8, addend: 0x0, symName: __ZNSt3__110__function6__funcIZN15ChessBoardPrintC1ER10ChessBoardEUlRKNS3_5PieceERKNS_12basic_stringIcNS_11char_traitsIcEENS_9allocatorIcEEEEE_NSB_ISG_EEFvS7_SF_EEC2B7v160006ERKSG_OSH_, symObjAddr: 0x9F9C, symBinAddr: 0x10000C4E4, symSize: 0x88 }
  - { offsetInCU: 0x22A14, offset: 0x22A14, size: 0x8, addend: 0x0, symName: __ZNSt3__110__function12__alloc_funcIZN15ChessBoardPrintC1ER10ChessBoardEUlRKNS3_5PieceERKNS_12basic_stringIcNS_11char_traitsIcEENS_9allocatorIcEEEEE_NSB_ISG_EEFvS7_SF_EEC1B7v160006ERKSG_OSH_, symObjAddr: 0xA024, symBinAddr: 0x10000C56C, symSize: 0x3C }
  - { offsetInCU: 0x22A5A, offset: 0x22A5A, size: 0x8, addend: 0x0, symName: __ZNSt3__110__function12__alloc_funcIZN15ChessBoardPrintC1ER10ChessBoardEUlRKNS3_5PieceERKNS_12basic_stringIcNS_11char_traitsIcEENS_9allocatorIcEEEEE_NSB_ISG_EEFvS7_SF_EEC2B7v160006ERKSG_OSH_, symObjAddr: 0xA060, symBinAddr: 0x10000C5A8, symSize: 0x5C }
  - { offsetInCU: 0x22AA0, offset: 0x22AA0, size: 0x8, addend: 0x0, symName: __ZNSt3__117__compressed_pairIZN15ChessBoardPrintC1ER10ChessBoardEUlRKNS2_5PieceERKNS_12basic_stringIcNS_11char_traitsIcEENS_9allocatorIcEEEEE_NSA_ISF_EEEC1B7v160006IJRKSF_EJOSG_EEENS_21piecewise_construct_tENS_5tupleIJDpT_EEENSN_IJDpT0_EEE, symObjAddr: 0xA0E8, symBinAddr: 0x10000C630, symSize: 0x3C }
  - { offsetInCU: 0x22B0A, offset: 0x22B0A, size: 0x8, addend: 0x0, symName: __ZNSt3__15tupleIJRKZN15ChessBoardPrintC1ER10ChessBoardEUlRKNS2_5PieceERKNS_12basic_stringIcNS_11char_traitsIcEENS_9allocatorIcEEEEE_EEC1B7v160006INS_4_AndELi0EEESH_, symObjAddr: 0xA124, symBinAddr: 0x10000C66C, symSize: 0x34 }
  - { offsetInCU: 0x22B52, offset: 0x22B52, size: 0x8, addend: 0x0, symName: __ZNSt3__15tupleIJRKZN15ChessBoardPrintC1ER10ChessBoardEUlRKNS2_5PieceERKNS_12basic_stringIcNS_11char_traitsIcEENS_9allocatorIcEEEEE_EEC2B7v160006INS_4_AndELi0EEESH_, symObjAddr: 0xA158, symBinAddr: 0x10000C6A0, symSize: 0x34 }
  - { offsetInCU: 0x22B9A, offset: 0x22B9A, size: 0x8, addend: 0x0, symName: __ZNSt3__112__tuple_implINS_15__tuple_indicesIJLm0EEEEJRKZN15ChessBoardPrintC1ER10ChessBoardEUlRKNS4_5PieceERKNS_12basic_stringIcNS_11char_traitsIcEENS_9allocatorIcEEEEE_EEC1B7v160006IJLm0EEJSJ_EJEJEJSJ_EEENS1_IJXspT_EEEENS_13__tuple_typesIJDpT0_EEENS1_IJXspT1_EEEENSN_IJDpT2_EEEDpOT3_, symObjAddr: 0xA18C, symBinAddr: 0x10000C6D4, symSize: 0x34 }
  - { offsetInCU: 0x22C2F, offset: 0x22C2F, size: 0x8, addend: 0x0, symName: __ZNSt3__112__tuple_implINS_15__tuple_indicesIJLm0EEEEJRKZN15ChessBoardPrintC1ER10ChessBoardEUlRKNS4_5PieceERKNS_12basic_stringIcNS_11char_traitsIcEENS_9allocatorIcEEEEE_EEC2B7v160006IJLm0EEJSJ_EJEJEJSJ_EEENS1_IJXspT_EEEENS_13__tuple_typesIJDpT0_EEENS1_IJXspT1_EEEENSN_IJDpT2_EEEDpOT3_, symObjAddr: 0xA1C0, symBinAddr: 0x10000C708, symSize: 0x34 }
  - { offsetInCU: 0x22CC4, offset: 0x22CC4, size: 0x8, addend: 0x0, symName: __ZNSt3__112__tuple_leafILm0ERKZN15ChessBoardPrintC1ER10ChessBoardEUlRKNS2_5PieceERKNS_12basic_stringIcNS_11char_traitsIcEENS_9allocatorIcEEEEE_Lb0EEC2B7v160006ISH_vEEOT_, symObjAddr: 0xA1F4, symBinAddr: 0x10000C73C, symSize: 0x20 }
  - { offsetInCU: 0x22D07, offset: 0x22D07, size: 0x8, addend: 0x0, symName: __ZNSt3__117__compressed_pairIZN15ChessBoardPrintC1ER10ChessBoardEUlRKNS2_5PieceERKNS_12basic_stringIcNS_11char_traitsIcEENS_9allocatorIcEEEEE_NSA_ISF_EEEC2B7v160006IJRKSF_EJOSG_EEENS_21piecewise_construct_tENS_5tupleIJDpT_EEENSN_IJDpT0_EEE, symObjAddr: 0xA214, symBinAddr: 0x10000C75C, symSize: 0x54 }
  - { offsetInCU: 0x22D71, offset: 0x22D71, size: 0x8, addend: 0x0, symName: __ZNSt3__122__compressed_pair_elemIZN15ChessBoardPrintC1ER10ChessBoardEUlRKNS2_5PieceERKNS_12basic_stringIcNS_11char_traitsIcEENS_9allocatorIcEEEEE_Li0ELb1EEC2B7v160006IJRKSF_EJLm0EEEENS_21piecewise_construct_tENS_5tupleIJDpT_EEENS_15__tuple_indicesIJXspT0_EEEE, symObjAddr: 0xA268, symBinAddr: 0x10000C7B0, symSize: 0x38 }
  - { offsetInCU: 0x22DD4, offset: 0x22DD4, size: 0x8, addend: 0x0, symName: __ZNSt3__112__tuple_leafILm0ERKZN15ChessBoardPrintC1ER10ChessBoardEUlRKNS2_5PieceERKNS_12basic_stringIcNS_11char_traitsIcEENS_9allocatorIcEEEEE_Lb0EE3getB7v160006Ev, symObjAddr: 0xA2C4, symBinAddr: 0x10000C80C, symSize: 0x18 }
  - { offsetInCU: 0x22DFA, offset: 0x22DFA, size: 0x8, addend: 0x0, symName: __ZNSt3__117__compressed_pairIPNS_10__function6__funcIZN15ChessBoardPrintC1ER10ChessBoardEUlRKNS4_5PieceERKNS_12basic_stringIcNS_11char_traitsIcEENS_9allocatorIcEEEEE_NSC_ISH_EEFvS8_SG_EEENS_22__allocator_destructorINSC_ISK_EEEEE5firstB7v160006Ev, symObjAddr: 0xA2DC, symBinAddr: 0x10000C824, symSize: 0x24 }
  - { offsetInCU: 0x22E20, offset: 0x22E20, size: 0x8, addend: 0x0, symName: __ZNSt3__122__compressed_pair_elemIPNS_10__function6__funcIZN15ChessBoardPrintC1ER10ChessBoardEUlRKNS4_5PieceERKNS_12basic_stringIcNS_11char_traitsIcEENS_9allocatorIcEEEEE_NSC_ISH_EEFvS8_SG_EEELi0ELb0EE5__getB7v160006Ev, symObjAddr: 0xA300, symBinAddr: 0x10000C848, symSize: 0x14 }
  - { offsetInCU: 0x22E46, offset: 0x22E46, size: 0x8, addend: 0x0, symName: __ZNSt3__110unique_ptrINS_10__function6__funcIZN15ChessBoardPrintC1ER10ChessBoardEUlRKNS4_5PieceERKNS_12basic_stringIcNS_11char_traitsIcEENS_9allocatorIcEEEEE_NSC_ISH_EEFvS8_SG_EEENS_22__allocator_destructorINSC_ISK_EEEEED2B7v160006Ev, symObjAddr: 0xA314, symBinAddr: 0x10000C85C, symSize: 0x30 }
  - { offsetInCU: 0x22E70, offset: 0x22E70, size: 0x8, addend: 0x0, symName: __ZNSt3__110unique_ptrINS_10__function6__funcIZN15ChessBoardPrintC1ER10ChessBoardEUlRKNS4_5PieceERKNS_12basic_stringIcNS_11char_traitsIcEENS_9allocatorIcEEEEE_NSC_ISH_EEFvS8_SG_EEENS_22__allocator_destructorINSC_ISK_EEEEE5resetB7v160006EPSK_, symObjAddr: 0xA344, symBinAddr: 0x10000C88C, symSize: 0x78 }
  - { offsetInCU: 0x22EB4, offset: 0x22EB4, size: 0x8, addend: 0x0, symName: __ZNSt3__117__compressed_pairIPNS_10__function6__funcIZN15ChessBoardPrintC1ER10ChessBoardEUlRKNS4_5PieceERKNS_12basic_stringIcNS_11char_traitsIcEENS_9allocatorIcEEEEE_NSC_ISH_EEFvS8_SG_EEENS_22__allocator_destructorINSC_ISK_EEEEE6secondB7v160006Ev, symObjAddr: 0xA3BC, symBinAddr: 0x10000C904, symSize: 0x28 }
  - { offsetInCU: 0x22EDA, offset: 0x22EDA, size: 0x8, addend: 0x0, symName: __ZNSt3__122__allocator_destructorINS_9allocatorINS_10__function6__funcIZN15ChessBoardPrintC1ER10ChessBoardEUlRKNS5_5PieceERKNS_12basic_stringIcNS_11char_traitsIcEENS1_IcEEEEE_NS1_ISH_EEFvS9_SG_EEEEEEclB7v160006EPSK_, symObjAddr: 0xA3E4, symBinAddr: 0x10000C92C, symSize: 0x34 }
  - { offsetInCU: 0x22F0E, offset: 0x22F0E, size: 0x8, addend: 0x0, symName: __ZNSt3__122__compressed_pair_elemINS_22__allocator_destructorINS_9allocatorINS_10__function6__funcIZN15ChessBoardPrintC1ER10ChessBoardEUlRKNS6_5PieceERKNS_12basic_stringIcNS_11char_traitsIcEENS2_IcEEEEE_NS2_ISI_EEFvSA_SH_EEEEEEELi1ELb0EE5__getB7v160006Ev, symObjAddr: 0xA418, symBinAddr: 0x10000C960, symSize: 0x14 }
  - { offsetInCU: 0x22F34, offset: 0x22F34, size: 0x8, addend: 0x0, symName: __ZNSt3__116allocator_traitsINS_9allocatorINS_10__function6__funcIZN15ChessBoardPrintC1ER10ChessBoardEUlRKNS5_5PieceERKNS_12basic_stringIcNS_11char_traitsIcEENS1_IcEEEEE_NS1_ISH_EEFvS9_SG_EEEEEE10deallocateB7v160006ERSL_PSK_m, symObjAddr: 0xA42C, symBinAddr: 0x10000C974, symSize: 0x34 }
  - { offsetInCU: 0x22F76, offset: 0x22F76, size: 0x8, addend: 0x0, symName: __ZNSt3__19allocatorINS_10__function6__funcIZN15ChessBoardPrintC1ER10ChessBoardEUlRKNS4_5PieceERKNS_12basic_stringIcNS_11char_traitsIcEENS0_IcEEEEE_NS0_ISG_EEFvS8_SF_EEEE10deallocateB7v160006EPSJ_m, symObjAddr: 0xA460, symBinAddr: 0x10000C9A8, symSize: 0x40 }
  - { offsetInCU: 0x22FB8, offset: 0x22FB8, size: 0x8, addend: 0x0, symName: __ZNSt3__110__function6__funcIZN15ChessBoardPrintC1ER10ChessBoardEUlRKNS3_5PieceERKNS_12basic_stringIcNS_11char_traitsIcEENS_9allocatorIcEEEEE_NSB_ISG_EEFvS7_SF_EEC1B7v160006ERKSG_RKSH_, symObjAddr: 0xA4A0, symBinAddr: 0x10000C9E8, symSize: 0x3C }
  - { offsetInCU: 0x23000, offset: 0x23000, size: 0x8, addend: 0x0, symName: __ZNSt3__110__function6__funcIZN15ChessBoardPrintC1ER10ChessBoardEUlRKNS3_5PieceERKNS_12basic_stringIcNS_11char_traitsIcEENS_9allocatorIcEEEEE_NSB_ISG_EEFvS7_SF_EEC2B7v160006ERKSG_RKSH_, symObjAddr: 0xA4DC, symBinAddr: 0x10000CA24, symSize: 0x88 }
  - { offsetInCU: 0x23048, offset: 0x23048, size: 0x8, addend: 0x0, symName: __ZNSt3__110__function12__alloc_funcIZN15ChessBoardPrintC1ER10ChessBoardEUlRKNS3_5PieceERKNS_12basic_stringIcNS_11char_traitsIcEENS_9allocatorIcEEEEE_NSB_ISG_EEFvS7_SF_EEC1B7v160006ERKSG_RKSH_, symObjAddr: 0xA564, symBinAddr: 0x10000CAAC, symSize: 0x3C }
  - { offsetInCU: 0x2308E, offset: 0x2308E, size: 0x8, addend: 0x0, symName: __ZNSt3__110__function12__alloc_funcIZN15ChessBoardPrintC1ER10ChessBoardEUlRKNS3_5PieceERKNS_12basic_stringIcNS_11char_traitsIcEENS_9allocatorIcEEEEE_NSB_ISG_EEFvS7_SF_EEC2B7v160006ERKSG_RKSH_, symObjAddr: 0xA5A0, symBinAddr: 0x10000CAE8, symSize: 0x5C }
  - { offsetInCU: 0x230D4, offset: 0x230D4, size: 0x8, addend: 0x0, symName: __ZNSt3__117__compressed_pairIZN15ChessBoardPrintC1ER10ChessBoardEUlRKNS2_5PieceERKNS_12basic_stringIcNS_11char_traitsIcEENS_9allocatorIcEEEEE_NSA_ISF_EEEC1B7v160006IJRKSF_EJRKSG_EEENS_21piecewise_construct_tENS_5tupleIJDpT_EEENSO_IJDpT0_EEE, symObjAddr: 0xA628, symBinAddr: 0x10000CB70, symSize: 0x3C }
  - { offsetInCU: 0x2313E, offset: 0x2313E, size: 0x8, addend: 0x0, symName: __ZNSt3__15tupleIJRKNS_9allocatorIZN15ChessBoardPrintC1ER10ChessBoardEUlRKNS3_5PieceERKNS_12basic_stringIcNS_11char_traitsIcEENS1_IcEEEEE_EEEEC1B7v160006INS_4_AndELi0EEESI_, symObjAddr: 0xA664, symBinAddr: 0x10000CBAC, symSize: 0x34 }
  - { offsetInCU: 0x23186, offset: 0x23186, size: 0x8, addend: 0x0, symName: __ZNSt3__15tupleIJRKNS_9allocatorIZN15ChessBoardPrintC1ER10ChessBoardEUlRKNS3_5PieceERKNS_12basic_stringIcNS_11char_traitsIcEENS1_IcEEEEE_EEEEC2B7v160006INS_4_AndELi0EEESI_, symObjAddr: 0xA698, symBinAddr: 0x10000CBE0, symSize: 0x34 }
  - { offsetInCU: 0x231CE, offset: 0x231CE, size: 0x8, addend: 0x0, symName: __ZNSt3__112__tuple_implINS_15__tuple_indicesIJLm0EEEEJRKNS_9allocatorIZN15ChessBoardPrintC1ER10ChessBoardEUlRKNS5_5PieceERKNS_12basic_stringIcNS_11char_traitsIcEENS3_IcEEEEE_EEEEC1B7v160006IJLm0EEJSK_EJEJEJSK_EEENS1_IJXspT_EEEENS_13__tuple_typesIJDpT0_EEENS1_IJXspT1_EEEENSO_IJDpT2_EEEDpOT3_, symObjAddr: 0xA6CC, symBinAddr: 0x10000CC14, symSize: 0x34 }
  - { offsetInCU: 0x23263, offset: 0x23263, size: 0x8, addend: 0x0, symName: __ZNSt3__112__tuple_implINS_15__tuple_indicesIJLm0EEEEJRKNS_9allocatorIZN15ChessBoardPrintC1ER10ChessBoardEUlRKNS5_5PieceERKNS_12basic_stringIcNS_11char_traitsIcEENS3_IcEEEEE_EEEEC2B7v160006IJLm0EEJSK_EJEJEJSK_EEENS1_IJXspT_EEEENS_13__tuple_typesIJDpT0_EEENS1_IJXspT1_EEEENSO_IJDpT2_EEEDpOT3_, symObjAddr: 0xA700, symBinAddr: 0x10000CC48, symSize: 0x34 }
  - { offsetInCU: 0x232F8, offset: 0x232F8, size: 0x8, addend: 0x0, symName: __ZNSt3__112__tuple_leafILm0ERKNS_9allocatorIZN15ChessBoardPrintC1ER10ChessBoardEUlRKNS3_5PieceERKNS_12basic_stringIcNS_11char_traitsIcEENS1_IcEEEEE_EELb0EEC2B7v160006ISI_vEEOT_, symObjAddr: 0xA734, symBinAddr: 0x10000CC7C, symSize: 0x20 }
  - { offsetInCU: 0x2333B, offset: 0x2333B, size: 0x8, addend: 0x0, symName: __ZNSt3__117__compressed_pairIZN15ChessBoardPrintC1ER10ChessBoardEUlRKNS2_5PieceERKNS_12basic_stringIcNS_11char_traitsIcEENS_9allocatorIcEEEEE_NSA_ISF_EEEC2B7v160006IJRKSF_EJRKSG_EEENS_21piecewise_construct_tENS_5tupleIJDpT_EEENSO_IJDpT0_EEE, symObjAddr: 0xA754, symBinAddr: 0x10000CC9C, symSize: 0x54 }
  - { offsetInCU: 0x233A5, offset: 0x233A5, size: 0x8, addend: 0x0, symName: __ZNSt3__122__compressed_pair_elemINS_9allocatorIZN15ChessBoardPrintC1ER10ChessBoardEUlRKNS3_5PieceERKNS_12basic_stringIcNS_11char_traitsIcEENS1_IcEEEEE_EELi1ELb1EEC2B7v160006IJRKSG_EJLm0EEEENS_21piecewise_construct_tENS_5tupleIJDpT_EEENS_15__tuple_indicesIJXspT0_EEEE, symObjAddr: 0xA7A8, symBinAddr: 0x10000CCF0, symSize: 0x38 }
  - { offsetInCU: 0x23408, offset: 0x23408, size: 0x8, addend: 0x0, symName: __ZNSt3__112__tuple_leafILm0ERKNS_9allocatorIZN15ChessBoardPrintC1ER10ChessBoardEUlRKNS3_5PieceERKNS_12basic_stringIcNS_11char_traitsIcEENS1_IcEEEEE_EELb0EE3getB7v160006Ev, symObjAddr: 0xA804, symBinAddr: 0x10000CD4C, symSize: 0x18 }
  - { offsetInCU: 0x2342E, offset: 0x2342E, size: 0x8, addend: 0x0, symName: __ZNSt3__110__function12__alloc_funcIZN15ChessBoardPrintC1ER10ChessBoardEUlRKNS3_5PieceERKNS_12basic_stringIcNS_11char_traitsIcEENS_9allocatorIcEEEEE_NSB_ISG_EEFvS7_SF_EE7destroyB7v160006Ev, symObjAddr: 0xA81C, symBinAddr: 0x10000CD64, symSize: 0x10 }
  - { offsetInCU: 0x23454, offset: 0x23454, size: 0x8, addend: 0x0, symName: __ZNSt3__110__function12__alloc_funcIZN15ChessBoardPrintC1ER10ChessBoardEUlRKNS3_5PieceERKNS_12basic_stringIcNS_11char_traitsIcEENS_9allocatorIcEEEEE_NSB_ISG_EEFvS7_SF_EEclB7v160006ES7_SF_, symObjAddr: 0xA82C, symBinAddr: 0x10000CD74, symSize: 0x38 }
  - { offsetInCU: 0x23496, offset: 0x23496, size: 0x8, addend: 0x0, symName: __ZNSt3__128__invoke_void_return_wrapperIvLb1EE6__callIJRZN15ChessBoardPrintC1ER10ChessBoardEUlRKNS4_5PieceERKNS_12basic_stringIcNS_11char_traitsIcEENS_9allocatorIcEEEEE_S8_SG_EEEvDpOT_, symObjAddr: 0xA864, symBinAddr: 0x10000CDAC, symSize: 0x34 }
  - { offsetInCU: 0x234ED, offset: 0x234ED, size: 0x8, addend: 0x0, symName: __ZNSt3__117__compressed_pairIZN15ChessBoardPrintC1ER10ChessBoardEUlRKNS2_5PieceERKNS_12basic_stringIcNS_11char_traitsIcEENS_9allocatorIcEEEEE_NSA_ISF_EEE5firstB7v160006Ev, symObjAddr: 0xA898, symBinAddr: 0x10000CDE0, symSize: 0x24 }
  - { offsetInCU: 0x23518, offset: 0x23518, size: 0x8, addend: 0x0, symName: __ZZN15ChessBoardPrintC1ER10ChessBoardENKUlRKNS0_5PieceERKNSt3__112basic_stringIcNS5_11char_traitsIcEENS5_9allocatorIcEEEEE_clES4_SD_, symObjAddr: 0xA8F0, symBinAddr: 0x10000CE38, symSize: 0xBC }
  - { offsetInCU: 0x2355E, offset: 0x2355E, size: 0x8, addend: 0x0, symName: __ZNSt3__122__compressed_pair_elemIZN15ChessBoardPrintC1ER10ChessBoardEUlRKNS2_5PieceERKNS_12basic_stringIcNS_11char_traitsIcEENS_9allocatorIcEEEEE_Li0ELb1EE5__getB7v160006Ev, symObjAddr: 0xA9AC, symBinAddr: 0x10000CEF4, symSize: 0x14 }
  - { offsetInCU: 0x23584, offset: 0x23584, size: 0x8, addend: 0x0, symName: __ZNSt3__110__function12__value_funcIFvRKN10ChessBoard5PieceERKNS_12basic_stringIcNS_11char_traitsIcEENS_9allocatorIcEEEEEE4swapB7v160006ERSF_, symObjAddr: 0xA9C0, symBinAddr: 0x10000CF08, symSize: 0x304 }
  - { offsetInCU: 0x235DD, offset: 0x235DD, size: 0x8, addend: 0x0, symName: __ZNSt3__110__function12__value_funcIFvRKN10ChessBoard5PieceERKNS_12basic_stringIcNS_11char_traitsIcEENS_9allocatorIcEEEEEE9__as_baseEPv, symObjAddr: 0xACC4, symBinAddr: 0x10000D20C, symSize: 0x14 }
  - { offsetInCU: 0x23601, offset: 0x23601, size: 0x8, addend: 0x0, symName: __ZNSt3__18functionIFvN10ChessBoard5ColorEEEC1IZN15ChessBoardPrintC1ERS1_EUlS2_E_vEET_, symObjAddr: 0xAD14, symBinAddr: 0x10000D25C, symSize: 0x2C }
  - { offsetInCU: 0x23646, offset: 0x23646, size: 0x8, addend: 0x0, symName: __ZNSt3__18functionIFvN10ChessBoard5ColorEEE4swapERS4_, symObjAddr: 0xAD40, symBinAddr: 0x10000D288, symSize: 0x2C }
  - { offsetInCU: 0x2367D, offset: 0x2367D, size: 0x8, addend: 0x0, symName: __ZNSt3__18functionIFvN10ChessBoard5ColorEEEC2IZN15ChessBoardPrintC1ERS1_EUlS2_E_vEET_, symObjAddr: 0xAD6C, symBinAddr: 0x10000D2B4, symSize: 0x30 }
  - { offsetInCU: 0x236C2, offset: 0x236C2, size: 0x8, addend: 0x0, symName: __ZNSt3__110__function12__value_funcIFvN10ChessBoard5ColorEEEC1B7v160006IZN15ChessBoardPrintC1ERS2_EUlS3_E_vEEOT_, symObjAddr: 0xAD9C, symBinAddr: 0x10000D2E4, symSize: 0x50 }
  - { offsetInCU: 0x23705, offset: 0x23705, size: 0x8, addend: 0x0, symName: __ZNSt3__19allocatorIZN15ChessBoardPrintC1ER10ChessBoardEUlNS2_5ColorEE_EC1B7v160006Ev, symObjAddr: 0xADEC, symBinAddr: 0x10000D334, symSize: 0x2C }
  - { offsetInCU: 0x2372F, offset: 0x2372F, size: 0x8, addend: 0x0, symName: __ZNSt3__110__function12__value_funcIFvN10ChessBoard5ColorEEEC1B7v160006IZN15ChessBoardPrintC1ERS2_EUlS3_E_NS_9allocatorIS9_EEEEOT_RKT0_, symObjAddr: 0xAE18, symBinAddr: 0x10000D360, symSize: 0x3C }
  - { offsetInCU: 0x23789, offset: 0x23789, size: 0x8, addend: 0x0, symName: __ZNSt3__19allocatorIZN15ChessBoardPrintC1ER10ChessBoardEUlNS2_5ColorEE_EC2B7v160006Ev, symObjAddr: 0xAE54, symBinAddr: 0x10000D39C, symSize: 0x2C }
  - { offsetInCU: 0x237B3, offset: 0x237B3, size: 0x8, addend: 0x0, symName: __ZNSt3__116__non_trivial_ifILb1ENS_9allocatorIZN15ChessBoardPrintC1ER10ChessBoardEUlNS3_5ColorEE_EEEC2B7v160006Ev, symObjAddr: 0xAE80, symBinAddr: 0x10000D3C8, symSize: 0x14 }
  - { offsetInCU: 0x237DD, offset: 0x237DD, size: 0x8, addend: 0x0, symName: __ZNSt3__110__function12__value_funcIFvN10ChessBoard5ColorEEEC2B7v160006IZN15ChessBoardPrintC1ERS2_EUlS3_E_NS_9allocatorIS9_EEEEOT_RKT0_, symObjAddr: 0xAE94, symBinAddr: 0x10000D3DC, symSize: 0x94 }
  - { offsetInCU: 0x23884, offset: 0x23884, size: 0x8, addend: 0x0, symName: __ZNSt3__19allocatorINS_10__function6__funcIZN15ChessBoardPrintC1ER10ChessBoardEUlNS4_5ColorEE_NS0_IS7_EEFvS6_EEEEC1B7v160006IS7_EERKNS0_IT_EE, symObjAddr: 0xAF40, symBinAddr: 0x10000D488, symSize: 0x34 }
  - { offsetInCU: 0x238C6, offset: 0x238C6, size: 0x8, addend: 0x0, symName: __ZNSt3__19allocatorIZN15ChessBoardPrintC1ER10ChessBoardEUlNS2_5ColorEE_EC1B7v160006INS_10__function6__funcIS5_S6_FvS4_EEEEERKNS0_IT_EE, symObjAddr: 0xAF74, symBinAddr: 0x10000D4BC, symSize: 0x34 }
  - { offsetInCU: 0x23903, offset: 0x23903, size: 0x8, addend: 0x0, symName: __ZNSt3__110__function6__funcIZN15ChessBoardPrintC1ER10ChessBoardEUlNS3_5ColorEE_NS_9allocatorIS6_EEFvS5_EEC1B7v160006EOS6_OS8_, symObjAddr: 0xAFA8, symBinAddr: 0x10000D4F0, symSize: 0x3C }
  - { offsetInCU: 0x2394B, offset: 0x2394B, size: 0x8, addend: 0x0, symName: __ZNSt3__19allocatorINS_10__function6__funcIZN15ChessBoardPrintC1ER10ChessBoardEUlNS4_5ColorEE_NS0_IS7_EEFvS6_EEEEC2B7v160006IS7_EERKNS0_IT_EE, symObjAddr: 0xAFE4, symBinAddr: 0x10000D52C, symSize: 0x30 }
  - { offsetInCU: 0x23988, offset: 0x23988, size: 0x8, addend: 0x0, symName: __ZNSt3__116__non_trivial_ifILb1ENS_9allocatorINS_10__function6__funcIZN15ChessBoardPrintC1ER10ChessBoardEUlNS5_5ColorEE_NS1_IS8_EEFvS7_EEEEEEC2B7v160006Ev, symObjAddr: 0xB014, symBinAddr: 0x10000D55C, symSize: 0x14 }
  - { offsetInCU: 0x239B2, offset: 0x239B2, size: 0x8, addend: 0x0, symName: __ZNSt3__19allocatorIZN15ChessBoardPrintC1ER10ChessBoardEUlNS2_5ColorEE_EC2B7v160006INS_10__function6__funcIS5_S6_FvS4_EEEEERKNS0_IT_EE, symObjAddr: 0xB028, symBinAddr: 0x10000D570, symSize: 0x30 }
  - { offsetInCU: 0x239EF, offset: 0x239EF, size: 0x8, addend: 0x0, symName: __ZNSt3__110__function6__funcIZN15ChessBoardPrintC1ER10ChessBoardEUlNS3_5ColorEE_NS_9allocatorIS6_EEFvS5_EEC2B7v160006EOS6_OS8_, symObjAddr: 0xB058, symBinAddr: 0x10000D5A0, symSize: 0x88 }
  - { offsetInCU: 0x23A37, offset: 0x23A37, size: 0x8, addend: 0x0, symName: __ZNSt3__110__function6__baseIFvN10ChessBoard5ColorEEEC2B7v160006Ev, symObjAddr: 0xB0E0, symBinAddr: 0x10000D628, symSize: 0x24 }
  - { offsetInCU: 0x23A61, offset: 0x23A61, size: 0x8, addend: 0x0, symName: __ZNSt3__110__function12__alloc_funcIZN15ChessBoardPrintC1ER10ChessBoardEUlNS3_5ColorEE_NS_9allocatorIS6_EEFvS5_EEC1B7v160006EOS6_OS8_, symObjAddr: 0xB104, symBinAddr: 0x10000D64C, symSize: 0x3C }
  - { offsetInCU: 0x23AA7, offset: 0x23AA7, size: 0x8, addend: 0x0, symName: __ZNSt3__110__function6__baseIFvN10ChessBoard5ColorEEED2Ev, symObjAddr: 0xB140, symBinAddr: 0x10000D688, symSize: 0x14 }
  - { offsetInCU: 0x23AD1, offset: 0x23AD1, size: 0x8, addend: 0x0, symName: __ZNSt3__110__function6__funcIZN15ChessBoardPrintC1ER10ChessBoardEUlNS3_5ColorEE_NS_9allocatorIS6_EEFvS5_EED1Ev, symObjAddr: 0xB154, symBinAddr: 0x10000D69C, symSize: 0x2C }
  - { offsetInCU: 0x23AFE, offset: 0x23AFE, size: 0x8, addend: 0x0, symName: __ZNSt3__110__function6__funcIZN15ChessBoardPrintC1ER10ChessBoardEUlNS3_5ColorEE_NS_9allocatorIS6_EEFvS5_EED0Ev, symObjAddr: 0xB180, symBinAddr: 0x10000D6C8, symSize: 0x30 }
  - { offsetInCU: 0x23B2B, offset: 0x23B2B, size: 0x8, addend: 0x0, symName: __ZNKSt3__110__function6__funcIZN15ChessBoardPrintC1ER10ChessBoardEUlNS3_5ColorEE_NS_9allocatorIS6_EEFvS5_EE7__cloneEv, symObjAddr: 0xB1B0, symBinAddr: 0x10000D6F8, symSize: 0xFC }
  - { offsetInCU: 0x23B7D, offset: 0x23B7D, size: 0x8, addend: 0x0, symName: __ZNKSt3__110__function6__funcIZN15ChessBoardPrintC1ER10ChessBoardEUlNS3_5ColorEE_NS_9allocatorIS6_EEFvS5_EE7__cloneEPNS0_6__baseIS9_EE, symObjAddr: 0xB2AC, symBinAddr: 0x10000D7F4, symSize: 0x58 }
  - { offsetInCU: 0x23BB4, offset: 0x23BB4, size: 0x8, addend: 0x0, symName: __ZNSt3__110__function6__funcIZN15ChessBoardPrintC1ER10ChessBoardEUlNS3_5ColorEE_NS_9allocatorIS6_EEFvS5_EE7destroyEv, symObjAddr: 0xB304, symBinAddr: 0x10000D84C, symSize: 0x28 }
  - { offsetInCU: 0x23BDC, offset: 0x23BDC, size: 0x8, addend: 0x0, symName: __ZNSt3__110__function6__funcIZN15ChessBoardPrintC1ER10ChessBoardEUlNS3_5ColorEE_NS_9allocatorIS6_EEFvS5_EE18destroy_deallocateEv, symObjAddr: 0xB32C, symBinAddr: 0x10000D874, symSize: 0x58 }
  - { offsetInCU: 0x23C1F, offset: 0x23C1F, size: 0x8, addend: 0x0, symName: __ZNSt3__110__function6__funcIZN15ChessBoardPrintC1ER10ChessBoardEUlNS3_5ColorEE_NS_9allocatorIS6_EEFvS5_EEclEOS5_, symObjAddr: 0xB384, symBinAddr: 0x10000D8CC, symSize: 0x30 }
  - { offsetInCU: 0x23C56, offset: 0x23C56, size: 0x8, addend: 0x0, symName: __ZNKSt3__110__function6__funcIZN15ChessBoardPrintC1ER10ChessBoardEUlNS3_5ColorEE_NS_9allocatorIS6_EEFvS5_EE6targetERKSt9type_info, symObjAddr: 0xB3B4, symBinAddr: 0x10000D8FC, symSize: 0x60 }
  - { offsetInCU: 0x23C8D, offset: 0x23C8D, size: 0x8, addend: 0x0, symName: __ZNKSt3__110__function6__funcIZN15ChessBoardPrintC1ER10ChessBoardEUlNS3_5ColorEE_NS_9allocatorIS6_EEFvS5_EE11target_typeEv, symObjAddr: 0xB414, symBinAddr: 0x10000D95C, symSize: 0x18 }
  - { offsetInCU: 0x23CB5, offset: 0x23CB5, size: 0x8, addend: 0x0, symName: __ZNSt3__110__function6__baseIFvN10ChessBoard5ColorEEED1Ev, symObjAddr: 0xB42C, symBinAddr: 0x10000D974, symSize: 0x14 }
  - { offsetInCU: 0x23CDF, offset: 0x23CDF, size: 0x8, addend: 0x0, symName: __ZNSt3__110__function6__baseIFvN10ChessBoard5ColorEEED0Ev, symObjAddr: 0xB440, symBinAddr: 0x10000D988, symSize: 0xC }
  - { offsetInCU: 0x23D09, offset: 0x23D09, size: 0x8, addend: 0x0, symName: __ZNSt3__110__function12__alloc_funcIZN15ChessBoardPrintC1ER10ChessBoardEUlNS3_5ColorEE_NS_9allocatorIS6_EEFvS5_EEC2B7v160006EOS6_OS8_, symObjAddr: 0xB44C, symBinAddr: 0x10000D994, symSize: 0x5C }
  - { offsetInCU: 0x23D4F, offset: 0x23D4F, size: 0x8, addend: 0x0, symName: __ZNSt3__117__compressed_pairIZN15ChessBoardPrintC1ER10ChessBoardEUlNS2_5ColorEE_NS_9allocatorIS5_EEEC1B7v160006IJOS5_EJOS7_EEENS_21piecewise_construct_tENS_5tupleIJDpT_EEENSD_IJDpT0_EEE, symObjAddr: 0xB500, symBinAddr: 0x10000DA48, symSize: 0x3C }
  - { offsetInCU: 0x23DB9, offset: 0x23DB9, size: 0x8, addend: 0x0, symName: __ZNSt3__15tupleIJOZN15ChessBoardPrintC1ER10ChessBoardEUlNS2_5ColorEE_EEC1B7v160006IJS5_ELi0EEEDpOT_, symObjAddr: 0xB53C, symBinAddr: 0x10000DA84, symSize: 0x34 }
  - { offsetInCU: 0x23E03, offset: 0x23E03, size: 0x8, addend: 0x0, symName: __ZNSt3__15tupleIJOZN15ChessBoardPrintC1ER10ChessBoardEUlNS2_5ColorEE_EEC2B7v160006IJS5_ELi0EEEDpOT_, symObjAddr: 0xB570, symBinAddr: 0x10000DAB8, symSize: 0x34 }
  - { offsetInCU: 0x23E4D, offset: 0x23E4D, size: 0x8, addend: 0x0, symName: __ZNSt3__112__tuple_implINS_15__tuple_indicesIJLm0EEEEJOZN15ChessBoardPrintC1ER10ChessBoardEUlNS4_5ColorEE_EEC1B7v160006IJLm0EEJS8_EJEJEJS7_EEENS1_IJXspT_EEEENS_13__tuple_typesIJDpT0_EEENS1_IJXspT1_EEEENSC_IJDpT2_EEEDpOT3_, symObjAddr: 0xB5A4, symBinAddr: 0x10000DAEC, symSize: 0x34 }
  - { offsetInCU: 0x23EE2, offset: 0x23EE2, size: 0x8, addend: 0x0, symName: __ZNSt3__112__tuple_implINS_15__tuple_indicesIJLm0EEEEJOZN15ChessBoardPrintC1ER10ChessBoardEUlNS4_5ColorEE_EEC2B7v160006IJLm0EEJS8_EJEJEJS7_EEENS1_IJXspT_EEEENS_13__tuple_typesIJDpT0_EEENS1_IJXspT1_EEEENSC_IJDpT2_EEEDpOT3_, symObjAddr: 0xB5D8, symBinAddr: 0x10000DB20, symSize: 0x34 }
  - { offsetInCU: 0x23F77, offset: 0x23F77, size: 0x8, addend: 0x0, symName: __ZNSt3__112__tuple_leafILm0EOZN15ChessBoardPrintC1ER10ChessBoardEUlNS2_5ColorEE_Lb0EEC2B7v160006IS5_vEEOT_, symObjAddr: 0xB60C, symBinAddr: 0x10000DB54, symSize: 0x20 }
  - { offsetInCU: 0x23FBA, offset: 0x23FBA, size: 0x8, addend: 0x0, symName: __ZNSt3__15tupleIJONS_9allocatorIZN15ChessBoardPrintC1ER10ChessBoardEUlNS3_5ColorEE_EEEEC1B7v160006IJS7_ELi0EEEDpOT_, symObjAddr: 0xB62C, symBinAddr: 0x10000DB74, symSize: 0x34 }
  - { offsetInCU: 0x24004, offset: 0x24004, size: 0x8, addend: 0x0, symName: __ZNSt3__15tupleIJONS_9allocatorIZN15ChessBoardPrintC1ER10ChessBoardEUlNS3_5ColorEE_EEEEC2B7v160006IJS7_ELi0EEEDpOT_, symObjAddr: 0xB660, symBinAddr: 0x10000DBA8, symSize: 0x34 }
  - { offsetInCU: 0x2404E, offset: 0x2404E, size: 0x8, addend: 0x0, symName: __ZNSt3__112__tuple_implINS_15__tuple_indicesIJLm0EEEEJONS_9allocatorIZN15ChessBoardPrintC1ER10ChessBoardEUlNS5_5ColorEE_EEEEC1B7v160006IJLm0EEJSA_EJEJEJS9_EEENS1_IJXspT_EEEENS_13__tuple_typesIJDpT0_EEENS1_IJXspT1_EEEENSE_IJDpT2_EEEDpOT3_, symObjAddr: 0xB694, symBinAddr: 0x10000DBDC, symSize: 0x34 }
  - { offsetInCU: 0x240E3, offset: 0x240E3, size: 0x8, addend: 0x0, symName: __ZNSt3__112__tuple_implINS_15__tuple_indicesIJLm0EEEEJONS_9allocatorIZN15ChessBoardPrintC1ER10ChessBoardEUlNS5_5ColorEE_EEEEC2B7v160006IJLm0EEJSA_EJEJEJS9_EEENS1_IJXspT_EEEENS_13__tuple_typesIJDpT0_EEENS1_IJXspT1_EEEENSE_IJDpT2_EEEDpOT3_, symObjAddr: 0xB6C8, symBinAddr: 0x10000DC10, symSize: 0x34 }
  - { offsetInCU: 0x24178, offset: 0x24178, size: 0x8, addend: 0x0, symName: __ZNSt3__112__tuple_leafILm0EONS_9allocatorIZN15ChessBoardPrintC1ER10ChessBoardEUlNS3_5ColorEE_EELb0EEC2B7v160006IS7_vEEOT_, symObjAddr: 0xB6FC, symBinAddr: 0x10000DC44, symSize: 0x20 }
  - { offsetInCU: 0x241BB, offset: 0x241BB, size: 0x8, addend: 0x0, symName: __ZNSt3__117__compressed_pairIZN15ChessBoardPrintC1ER10ChessBoardEUlNS2_5ColorEE_NS_9allocatorIS5_EEEC2B7v160006IJOS5_EJOS7_EEENS_21piecewise_construct_tENS_5tupleIJDpT_EEENSD_IJDpT0_EEE, symObjAddr: 0xB71C, symBinAddr: 0x10000DC64, symSize: 0x54 }
  - { offsetInCU: 0x24225, offset: 0x24225, size: 0x8, addend: 0x0, symName: __ZNSt3__122__compressed_pair_elemIZN15ChessBoardPrintC1ER10ChessBoardEUlNS2_5ColorEE_Li0ELb1EEC2B7v160006IJOS5_EJLm0EEEENS_21piecewise_construct_tENS_5tupleIJDpT_EEENS_15__tuple_indicesIJXspT0_EEEE, symObjAddr: 0xB770, symBinAddr: 0x10000DCB8, symSize: 0x38 }
  - { offsetInCU: 0x24288, offset: 0x24288, size: 0x8, addend: 0x0, symName: __ZNSt3__122__compressed_pair_elemINS_9allocatorIZN15ChessBoardPrintC1ER10ChessBoardEUlNS3_5ColorEE_EELi1ELb1EEC2B7v160006IJOS7_EJLm0EEEENS_21piecewise_construct_tENS_5tupleIJDpT_EEENS_15__tuple_indicesIJXspT0_EEEE, symObjAddr: 0xB7A8, symBinAddr: 0x10000DCF0, symSize: 0x38 }
  - { offsetInCU: 0x242EB, offset: 0x242EB, size: 0x8, addend: 0x0, symName: __ZNSt3__112__tuple_leafILm0EOZN15ChessBoardPrintC1ER10ChessBoardEUlNS2_5ColorEE_Lb0EE3getB7v160006Ev, symObjAddr: 0xB804, symBinAddr: 0x10000DD4C, symSize: 0x18 }
  - { offsetInCU: 0x24311, offset: 0x24311, size: 0x8, addend: 0x0, symName: __ZNSt3__112__tuple_leafILm0EONS_9allocatorIZN15ChessBoardPrintC1ER10ChessBoardEUlNS3_5ColorEE_EELb0EE3getB7v160006Ev, symObjAddr: 0xB840, symBinAddr: 0x10000DD88, symSize: 0x18 }
  - { offsetInCU: 0x24337, offset: 0x24337, size: 0x8, addend: 0x0, symName: __ZNSt3__110__function6__funcIZN15ChessBoardPrintC1ER10ChessBoardEUlNS3_5ColorEE_NS_9allocatorIS6_EEFvS5_EED2Ev, symObjAddr: 0xB858, symBinAddr: 0x10000DDA0, symSize: 0x2C }
  - { offsetInCU: 0x24364, offset: 0x24364, size: 0x8, addend: 0x0, symName: __ZNKSt3__110__function12__alloc_funcIZN15ChessBoardPrintC1ER10ChessBoardEUlNS3_5ColorEE_NS_9allocatorIS6_EEFvS5_EE15__get_allocatorB7v160006Ev, symObjAddr: 0xB884, symBinAddr: 0x10000DDCC, symSize: 0x24 }
  - { offsetInCU: 0x2438A, offset: 0x2438A, size: 0x8, addend: 0x0, symName: __ZNSt3__19allocatorINS_10__function6__funcIZN15ChessBoardPrintC1ER10ChessBoardEUlNS4_5ColorEE_NS0_IS7_EEFvS6_EEEE8allocateB7v160006Em, symObjAddr: 0xB8A8, symBinAddr: 0x10000DDF0, symSize: 0x58 }
  - { offsetInCU: 0x243CD, offset: 0x243CD, size: 0x8, addend: 0x0, symName: __ZNSt3__122__allocator_destructorINS_9allocatorINS_10__function6__funcIZN15ChessBoardPrintC1ER10ChessBoardEUlNS5_5ColorEE_NS1_IS8_EEFvS7_EEEEEEC1B7v160006ERSC_m, symObjAddr: 0xB900, symBinAddr: 0x10000DE48, symSize: 0x3C }
  - { offsetInCU: 0x244A1, offset: 0x244A1, size: 0x8, addend: 0x0, symName: __ZNSt3__110unique_ptrINS_10__function6__funcIZN15ChessBoardPrintC1ER10ChessBoardEUlNS4_5ColorEE_NS_9allocatorIS7_EEFvS6_EEENS_22__allocator_destructorINS8_ISB_EEEEEC1B7v160006ILb1EvEEPSB_NS_16__dependent_typeINS_27__unique_ptr_deleter_sfinaeISE_EEXT_EE20__good_rval_ref_typeE, symObjAddr: 0xB93C, symBinAddr: 0x10000DE84, symSize: 0x3C }
  - { offsetInCU: 0x244F2, offset: 0x244F2, size: 0x8, addend: 0x0, symName: __ZNKSt3__110unique_ptrINS_10__function6__funcIZN15ChessBoardPrintC1ER10ChessBoardEUlNS4_5ColorEE_NS_9allocatorIS7_EEFvS6_EEENS_22__allocator_destructorINS8_ISB_EEEEE3getB7v160006Ev, symObjAddr: 0xB978, symBinAddr: 0x10000DEC0, symSize: 0x28 }
  - { offsetInCU: 0x24518, offset: 0x24518, size: 0x8, addend: 0x0, symName: __ZNKSt3__110__function12__alloc_funcIZN15ChessBoardPrintC1ER10ChessBoardEUlNS3_5ColorEE_NS_9allocatorIS6_EEFvS5_EE8__targetB7v160006Ev, symObjAddr: 0xB9A0, symBinAddr: 0x10000DEE8, symSize: 0x24 }
  - { offsetInCU: 0x2453E, offset: 0x2453E, size: 0x8, addend: 0x0, symName: __ZNSt3__110__function6__funcIZN15ChessBoardPrintC1ER10ChessBoardEUlNS3_5ColorEE_NS_9allocatorIS6_EEFvS5_EEC1B7v160006ERKS6_OS8_, symObjAddr: 0xB9C4, symBinAddr: 0x10000DF0C, symSize: 0x3C }
  - { offsetInCU: 0x24586, offset: 0x24586, size: 0x8, addend: 0x0, symName: __ZNSt3__110unique_ptrINS_10__function6__funcIZN15ChessBoardPrintC1ER10ChessBoardEUlNS4_5ColorEE_NS_9allocatorIS7_EEFvS6_EEENS_22__allocator_destructorINS8_ISB_EEEEE7releaseB7v160006Ev, symObjAddr: 0xBA00, symBinAddr: 0x10000DF48, symSize: 0x44 }
  - { offsetInCU: 0x245BB, offset: 0x245BB, size: 0x8, addend: 0x0, symName: __ZNSt3__110unique_ptrINS_10__function6__funcIZN15ChessBoardPrintC1ER10ChessBoardEUlNS4_5ColorEE_NS_9allocatorIS7_EEFvS6_EEENS_22__allocator_destructorINS8_ISB_EEEEED1B7v160006Ev, symObjAddr: 0xBA44, symBinAddr: 0x10000DF8C, symSize: 0x2C }
  - { offsetInCU: 0x245E5, offset: 0x245E5, size: 0x8, addend: 0x0, symName: __ZNKSt3__117__compressed_pairIZN15ChessBoardPrintC1ER10ChessBoardEUlNS2_5ColorEE_NS_9allocatorIS5_EEE6secondB7v160006Ev, symObjAddr: 0xBA70, symBinAddr: 0x10000DFB8, symSize: 0x24 }
  - { offsetInCU: 0x2460B, offset: 0x2460B, size: 0x8, addend: 0x0, symName: __ZNKSt3__122__compressed_pair_elemINS_9allocatorIZN15ChessBoardPrintC1ER10ChessBoardEUlNS3_5ColorEE_EELi1ELb1EE5__getB7v160006Ev, symObjAddr: 0xBA94, symBinAddr: 0x10000DFDC, symSize: 0x14 }
  - { offsetInCU: 0x2463B, offset: 0x2463B, size: 0x8, addend: 0x0, symName: __ZNSt3__116allocator_traitsINS_9allocatorINS_10__function6__funcIZN15ChessBoardPrintC1ER10ChessBoardEUlNS5_5ColorEE_NS1_IS8_EEFvS7_EEEEEE8max_sizeB7v160006ISC_vEEmRKSC_, symObjAddr: 0xBAA8, symBinAddr: 0x10000DFF0, symSize: 0x24 }
  - { offsetInCU: 0x24669, offset: 0x24669, size: 0x8, addend: 0x0, symName: __ZNKSt3__19allocatorINS_10__function6__funcIZN15ChessBoardPrintC1ER10ChessBoardEUlNS4_5ColorEE_NS0_IS7_EEFvS6_EEEE8max_sizeB7v160006Ev, symObjAddr: 0xBACC, symBinAddr: 0x10000E014, symSize: 0x14 }
  - { offsetInCU: 0x2468F, offset: 0x2468F, size: 0x8, addend: 0x0, symName: __ZNSt3__122__allocator_destructorINS_9allocatorINS_10__function6__funcIZN15ChessBoardPrintC1ER10ChessBoardEUlNS5_5ColorEE_NS1_IS8_EEFvS7_EEEEEEC2B7v160006ERSC_m, symObjAddr: 0xBAE0, symBinAddr: 0x10000E028, symSize: 0x2C }
  - { offsetInCU: 0x246D5, offset: 0x246D5, size: 0x8, addend: 0x0, symName: __ZNSt3__110unique_ptrINS_10__function6__funcIZN15ChessBoardPrintC1ER10ChessBoardEUlNS4_5ColorEE_NS_9allocatorIS7_EEFvS6_EEENS_22__allocator_destructorINS8_ISB_EEEEEC2B7v160006ILb1EvEEPSB_NS_16__dependent_typeINS_27__unique_ptr_deleter_sfinaeISE_EEXT_EE20__good_rval_ref_typeE, symObjAddr: 0xBB0C, symBinAddr: 0x10000E054, symSize: 0x48 }
  - { offsetInCU: 0x24726, offset: 0x24726, size: 0x8, addend: 0x0, symName: __ZNSt3__117__compressed_pairIPNS_10__function6__funcIZN15ChessBoardPrintC1ER10ChessBoardEUlNS4_5ColorEE_NS_9allocatorIS7_EEFvS6_EEENS_22__allocator_destructorINS8_ISB_EEEEEC1B7v160006IRSC_SF_EEOT_OT0_, symObjAddr: 0xBB54, symBinAddr: 0x10000E09C, symSize: 0x3C }
  - { offsetInCU: 0x2477E, offset: 0x2477E, size: 0x8, addend: 0x0, symName: __ZNSt3__117__compressed_pairIPNS_10__function6__funcIZN15ChessBoardPrintC1ER10ChessBoardEUlNS4_5ColorEE_NS_9allocatorIS7_EEFvS6_EEENS_22__allocator_destructorINS8_ISB_EEEEEC2B7v160006IRSC_SF_EEOT_OT0_, symObjAddr: 0xBB90, symBinAddr: 0x10000E0D8, symSize: 0x48 }
  - { offsetInCU: 0x247D6, offset: 0x247D6, size: 0x8, addend: 0x0, symName: __ZNSt3__122__compressed_pair_elemIPNS_10__function6__funcIZN15ChessBoardPrintC1ER10ChessBoardEUlNS4_5ColorEE_NS_9allocatorIS7_EEFvS6_EEELi0ELb0EEC2B7v160006IRSC_vEEOT_, symObjAddr: 0xBBD8, symBinAddr: 0x10000E120, symSize: 0x24 }
  - { offsetInCU: 0x24818, offset: 0x24818, size: 0x8, addend: 0x0, symName: __ZNSt3__122__compressed_pair_elemINS_22__allocator_destructorINS_9allocatorINS_10__function6__funcIZN15ChessBoardPrintC1ER10ChessBoardEUlNS6_5ColorEE_NS2_IS9_EEFvS8_EEEEEEELi1ELb0EEC2B7v160006ISE_vEEOT_, symObjAddr: 0xBBFC, symBinAddr: 0x10000E144, symSize: 0x24 }
  - { offsetInCU: 0x2485A, offset: 0x2485A, size: 0x8, addend: 0x0, symName: __ZNKSt3__117__compressed_pairIPNS_10__function6__funcIZN15ChessBoardPrintC1ER10ChessBoardEUlNS4_5ColorEE_NS_9allocatorIS7_EEFvS6_EEENS_22__allocator_destructorINS8_ISB_EEEEE5firstB7v160006Ev, symObjAddr: 0xBC20, symBinAddr: 0x10000E168, symSize: 0x24 }
  - { offsetInCU: 0x24880, offset: 0x24880, size: 0x8, addend: 0x0, symName: __ZNKSt3__122__compressed_pair_elemIPNS_10__function6__funcIZN15ChessBoardPrintC1ER10ChessBoardEUlNS4_5ColorEE_NS_9allocatorIS7_EEFvS6_EEELi0ELb0EE5__getB7v160006Ev, symObjAddr: 0xBC44, symBinAddr: 0x10000E18C, symSize: 0x14 }
  - { offsetInCU: 0x248A6, offset: 0x248A6, size: 0x8, addend: 0x0, symName: __ZNKSt3__117__compressed_pairIZN15ChessBoardPrintC1ER10ChessBoardEUlNS2_5ColorEE_NS_9allocatorIS5_EEE5firstB7v160006Ev, symObjAddr: 0xBC58, symBinAddr: 0x10000E1A0, symSize: 0x24 }
  - { offsetInCU: 0x248CC, offset: 0x248CC, size: 0x8, addend: 0x0, symName: __ZNKSt3__122__compressed_pair_elemIZN15ChessBoardPrintC1ER10ChessBoardEUlNS2_5ColorEE_Li0ELb1EE5__getB7v160006Ev, symObjAddr: 0xBC7C, symBinAddr: 0x10000E1C4, symSize: 0x14 }
  - { offsetInCU: 0x248F2, offset: 0x248F2, size: 0x8, addend: 0x0, symName: __ZNSt3__110__function6__funcIZN15ChessBoardPrintC1ER10ChessBoardEUlNS3_5ColorEE_NS_9allocatorIS6_EEFvS5_EEC2B7v160006ERKS6_OS8_, symObjAddr: 0xBC90, symBinAddr: 0x10000E1D8, symSize: 0x88 }
  - { offsetInCU: 0x2493A, offset: 0x2493A, size: 0x8, addend: 0x0, symName: __ZNSt3__110__function12__alloc_funcIZN15ChessBoardPrintC1ER10ChessBoardEUlNS3_5ColorEE_NS_9allocatorIS6_EEFvS5_EEC1B7v160006ERKS6_OS8_, symObjAddr: 0xBD18, symBinAddr: 0x10000E260, symSize: 0x3C }
  - { offsetInCU: 0x24980, offset: 0x24980, size: 0x8, addend: 0x0, symName: __ZNSt3__110__function12__alloc_funcIZN15ChessBoardPrintC1ER10ChessBoardEUlNS3_5ColorEE_NS_9allocatorIS6_EEFvS5_EEC2B7v160006ERKS6_OS8_, symObjAddr: 0xBD54, symBinAddr: 0x10000E29C, symSize: 0x5C }
  - { offsetInCU: 0x249C6, offset: 0x249C6, size: 0x8, addend: 0x0, symName: __ZNSt3__117__compressed_pairIZN15ChessBoardPrintC1ER10ChessBoardEUlNS2_5ColorEE_NS_9allocatorIS5_EEEC1B7v160006IJRKS5_EJOS7_EEENS_21piecewise_construct_tENS_5tupleIJDpT_EEENSE_IJDpT0_EEE, symObjAddr: 0xBDDC, symBinAddr: 0x10000E324, symSize: 0x3C }
  - { offsetInCU: 0x24A30, offset: 0x24A30, size: 0x8, addend: 0x0, symName: __ZNSt3__15tupleIJRKZN15ChessBoardPrintC1ER10ChessBoardEUlNS2_5ColorEE_EEC1B7v160006INS_4_AndELi0EEES7_, symObjAddr: 0xBE18, symBinAddr: 0x10000E360, symSize: 0x34 }
  - { offsetInCU: 0x24A78, offset: 0x24A78, size: 0x8, addend: 0x0, symName: __ZNSt3__15tupleIJRKZN15ChessBoardPrintC1ER10ChessBoardEUlNS2_5ColorEE_EEC2B7v160006INS_4_AndELi0EEES7_, symObjAddr: 0xBE4C, symBinAddr: 0x10000E394, symSize: 0x34 }
  - { offsetInCU: 0x24AC0, offset: 0x24AC0, size: 0x8, addend: 0x0, symName: __ZNSt3__112__tuple_implINS_15__tuple_indicesIJLm0EEEEJRKZN15ChessBoardPrintC1ER10ChessBoardEUlNS4_5ColorEE_EEC1B7v160006IJLm0EEJS9_EJEJEJS9_EEENS1_IJXspT_EEEENS_13__tuple_typesIJDpT0_EEENS1_IJXspT1_EEEENSD_IJDpT2_EEEDpOT3_, symObjAddr: 0xBE80, symBinAddr: 0x10000E3C8, symSize: 0x34 }
  - { offsetInCU: 0x24B55, offset: 0x24B55, size: 0x8, addend: 0x0, symName: __ZNSt3__112__tuple_implINS_15__tuple_indicesIJLm0EEEEJRKZN15ChessBoardPrintC1ER10ChessBoardEUlNS4_5ColorEE_EEC2B7v160006IJLm0EEJS9_EJEJEJS9_EEENS1_IJXspT_EEEENS_13__tuple_typesIJDpT0_EEENS1_IJXspT1_EEEENSD_IJDpT2_EEEDpOT3_, symObjAddr: 0xBEB4, symBinAddr: 0x10000E3FC, symSize: 0x34 }
  - { offsetInCU: 0x24BEA, offset: 0x24BEA, size: 0x8, addend: 0x0, symName: __ZNSt3__112__tuple_leafILm0ERKZN15ChessBoardPrintC1ER10ChessBoardEUlNS2_5ColorEE_Lb0EEC2B7v160006IS7_vEEOT_, symObjAddr: 0xBEE8, symBinAddr: 0x10000E430, symSize: 0x20 }
  - { offsetInCU: 0x24C2D, offset: 0x24C2D, size: 0x8, addend: 0x0, symName: __ZNSt3__117__compressed_pairIZN15ChessBoardPrintC1ER10ChessBoardEUlNS2_5ColorEE_NS_9allocatorIS5_EEEC2B7v160006IJRKS5_EJOS7_EEENS_21piecewise_construct_tENS_5tupleIJDpT_EEENSE_IJDpT0_EEE, symObjAddr: 0xBF08, symBinAddr: 0x10000E450, symSize: 0x54 }
  - { offsetInCU: 0x24C97, offset: 0x24C97, size: 0x8, addend: 0x0, symName: __ZNSt3__122__compressed_pair_elemIZN15ChessBoardPrintC1ER10ChessBoardEUlNS2_5ColorEE_Li0ELb1EEC2B7v160006IJRKS5_EJLm0EEEENS_21piecewise_construct_tENS_5tupleIJDpT_EEENS_15__tuple_indicesIJXspT0_EEEE, symObjAddr: 0xBF5C, symBinAddr: 0x10000E4A4, symSize: 0x38 }
  - { offsetInCU: 0x24CFA, offset: 0x24CFA, size: 0x8, addend: 0x0, symName: __ZNSt3__112__tuple_leafILm0ERKZN15ChessBoardPrintC1ER10ChessBoardEUlNS2_5ColorEE_Lb0EE3getB7v160006Ev, symObjAddr: 0xBFB8, symBinAddr: 0x10000E500, symSize: 0x18 }
  - { offsetInCU: 0x24D20, offset: 0x24D20, size: 0x8, addend: 0x0, symName: __ZNSt3__117__compressed_pairIPNS_10__function6__funcIZN15ChessBoardPrintC1ER10ChessBoardEUlNS4_5ColorEE_NS_9allocatorIS7_EEFvS6_EEENS_22__allocator_destructorINS8_ISB_EEEEE5firstB7v160006Ev, symObjAddr: 0xBFD0, symBinAddr: 0x10000E518, symSize: 0x24 }
  - { offsetInCU: 0x24D46, offset: 0x24D46, size: 0x8, addend: 0x0, symName: __ZNSt3__122__compressed_pair_elemIPNS_10__function6__funcIZN15ChessBoardPrintC1ER10ChessBoardEUlNS4_5ColorEE_NS_9allocatorIS7_EEFvS6_EEELi0ELb0EE5__getB7v160006Ev, symObjAddr: 0xBFF4, symBinAddr: 0x10000E53C, symSize: 0x14 }
  - { offsetInCU: 0x24D6C, offset: 0x24D6C, size: 0x8, addend: 0x0, symName: __ZNSt3__110unique_ptrINS_10__function6__funcIZN15ChessBoardPrintC1ER10ChessBoardEUlNS4_5ColorEE_NS_9allocatorIS7_EEFvS6_EEENS_22__allocator_destructorINS8_ISB_EEEEED2B7v160006Ev, symObjAddr: 0xC008, symBinAddr: 0x10000E550, symSize: 0x30 }
  - { offsetInCU: 0x24D96, offset: 0x24D96, size: 0x8, addend: 0x0, symName: __ZNSt3__110unique_ptrINS_10__function6__funcIZN15ChessBoardPrintC1ER10ChessBoardEUlNS4_5ColorEE_NS_9allocatorIS7_EEFvS6_EEENS_22__allocator_destructorINS8_ISB_EEEEE5resetB7v160006EPSB_, symObjAddr: 0xC038, symBinAddr: 0x10000E580, symSize: 0x78 }
  - { offsetInCU: 0x24DDA, offset: 0x24DDA, size: 0x8, addend: 0x0, symName: __ZNSt3__117__compressed_pairIPNS_10__function6__funcIZN15ChessBoardPrintC1ER10ChessBoardEUlNS4_5ColorEE_NS_9allocatorIS7_EEFvS6_EEENS_22__allocator_destructorINS8_ISB_EEEEE6secondB7v160006Ev, symObjAddr: 0xC0B0, symBinAddr: 0x10000E5F8, symSize: 0x28 }
  - { offsetInCU: 0x24E00, offset: 0x24E00, size: 0x8, addend: 0x0, symName: __ZNSt3__122__allocator_destructorINS_9allocatorINS_10__function6__funcIZN15ChessBoardPrintC1ER10ChessBoardEUlNS5_5ColorEE_NS1_IS8_EEFvS7_EEEEEEclB7v160006EPSB_, symObjAddr: 0xC0D8, symBinAddr: 0x10000E620, symSize: 0x34 }
  - { offsetInCU: 0x24E34, offset: 0x24E34, size: 0x8, addend: 0x0, symName: __ZNSt3__122__compressed_pair_elemINS_22__allocator_destructorINS_9allocatorINS_10__function6__funcIZN15ChessBoardPrintC1ER10ChessBoardEUlNS6_5ColorEE_NS2_IS9_EEFvS8_EEEEEEELi1ELb0EE5__getB7v160006Ev, symObjAddr: 0xC10C, symBinAddr: 0x10000E654, symSize: 0x14 }
  - { offsetInCU: 0x24E5A, offset: 0x24E5A, size: 0x8, addend: 0x0, symName: __ZNSt3__116allocator_traitsINS_9allocatorINS_10__function6__funcIZN15ChessBoardPrintC1ER10ChessBoardEUlNS5_5ColorEE_NS1_IS8_EEFvS7_EEEEEE10deallocateB7v160006ERSC_PSB_m, symObjAddr: 0xC120, symBinAddr: 0x10000E668, symSize: 0x34 }
  - { offsetInCU: 0x24E9C, offset: 0x24E9C, size: 0x8, addend: 0x0, symName: __ZNSt3__19allocatorINS_10__function6__funcIZN15ChessBoardPrintC1ER10ChessBoardEUlNS4_5ColorEE_NS0_IS7_EEFvS6_EEEE10deallocateB7v160006EPSA_m, symObjAddr: 0xC154, symBinAddr: 0x10000E69C, symSize: 0x40 }
  - { offsetInCU: 0x24EDE, offset: 0x24EDE, size: 0x8, addend: 0x0, symName: __ZNSt3__110__function6__funcIZN15ChessBoardPrintC1ER10ChessBoardEUlNS3_5ColorEE_NS_9allocatorIS6_EEFvS5_EEC1B7v160006ERKS6_RKS8_, symObjAddr: 0xC194, symBinAddr: 0x10000E6DC, symSize: 0x3C }
  - { offsetInCU: 0x24F26, offset: 0x24F26, size: 0x8, addend: 0x0, symName: __ZNSt3__110__function6__funcIZN15ChessBoardPrintC1ER10ChessBoardEUlNS3_5ColorEE_NS_9allocatorIS6_EEFvS5_EEC2B7v160006ERKS6_RKS8_, symObjAddr: 0xC1D0, symBinAddr: 0x10000E718, symSize: 0x88 }
  - { offsetInCU: 0x24F6E, offset: 0x24F6E, size: 0x8, addend: 0x0, symName: __ZNSt3__110__function12__alloc_funcIZN15ChessBoardPrintC1ER10ChessBoardEUlNS3_5ColorEE_NS_9allocatorIS6_EEFvS5_EEC1B7v160006ERKS6_RKS8_, symObjAddr: 0xC258, symBinAddr: 0x10000E7A0, symSize: 0x3C }
  - { offsetInCU: 0x24FB4, offset: 0x24FB4, size: 0x8, addend: 0x0, symName: __ZNSt3__110__function12__alloc_funcIZN15ChessBoardPrintC1ER10ChessBoardEUlNS3_5ColorEE_NS_9allocatorIS6_EEFvS5_EEC2B7v160006ERKS6_RKS8_, symObjAddr: 0xC294, symBinAddr: 0x10000E7DC, symSize: 0x5C }
  - { offsetInCU: 0x24FFA, offset: 0x24FFA, size: 0x8, addend: 0x0, symName: __ZNSt3__117__compressed_pairIZN15ChessBoardPrintC1ER10ChessBoardEUlNS2_5ColorEE_NS_9allocatorIS5_EEEC1B7v160006IJRKS5_EJRKS7_EEENS_21piecewise_construct_tENS_5tupleIJDpT_EEENSF_IJDpT0_EEE, symObjAddr: 0xC31C, symBinAddr: 0x10000E864, symSize: 0x3C }
  - { offsetInCU: 0x25064, offset: 0x25064, size: 0x8, addend: 0x0, symName: __ZNSt3__15tupleIJRKNS_9allocatorIZN15ChessBoardPrintC1ER10ChessBoardEUlNS3_5ColorEE_EEEEC1B7v160006INS_4_AndELi0EEES9_, symObjAddr: 0xC358, symBinAddr: 0x10000E8A0, symSize: 0x34 }
  - { offsetInCU: 0x250AC, offset: 0x250AC, size: 0x8, addend: 0x0, symName: __ZNSt3__15tupleIJRKNS_9allocatorIZN15ChessBoardPrintC1ER10ChessBoardEUlNS3_5ColorEE_EEEEC2B7v160006INS_4_AndELi0EEES9_, symObjAddr: 0xC38C, symBinAddr: 0x10000E8D4, symSize: 0x34 }
  - { offsetInCU: 0x250F4, offset: 0x250F4, size: 0x8, addend: 0x0, symName: __ZNSt3__112__tuple_implINS_15__tuple_indicesIJLm0EEEEJRKNS_9allocatorIZN15ChessBoardPrintC1ER10ChessBoardEUlNS5_5ColorEE_EEEEC1B7v160006IJLm0EEJSB_EJEJEJSB_EEENS1_IJXspT_EEEENS_13__tuple_typesIJDpT0_EEENS1_IJXspT1_EEEENSF_IJDpT2_EEEDpOT3_, symObjAddr: 0xC3C0, symBinAddr: 0x10000E908, symSize: 0x34 }
  - { offsetInCU: 0x25189, offset: 0x25189, size: 0x8, addend: 0x0, symName: __ZNSt3__112__tuple_implINS_15__tuple_indicesIJLm0EEEEJRKNS_9allocatorIZN15ChessBoardPrintC1ER10ChessBoardEUlNS5_5ColorEE_EEEEC2B7v160006IJLm0EEJSB_EJEJEJSB_EEENS1_IJXspT_EEEENS_13__tuple_typesIJDpT0_EEENS1_IJXspT1_EEEENSF_IJDpT2_EEEDpOT3_, symObjAddr: 0xC3F4, symBinAddr: 0x10000E93C, symSize: 0x34 }
  - { offsetInCU: 0x2521E, offset: 0x2521E, size: 0x8, addend: 0x0, symName: __ZNSt3__112__tuple_leafILm0ERKNS_9allocatorIZN15ChessBoardPrintC1ER10ChessBoardEUlNS3_5ColorEE_EELb0EEC2B7v160006IS9_vEEOT_, symObjAddr: 0xC428, symBinAddr: 0x10000E970, symSize: 0x20 }
  - { offsetInCU: 0x25261, offset: 0x25261, size: 0x8, addend: 0x0, symName: __ZNSt3__117__compressed_pairIZN15ChessBoardPrintC1ER10ChessBoardEUlNS2_5ColorEE_NS_9allocatorIS5_EEEC2B7v160006IJRKS5_EJRKS7_EEENS_21piecewise_construct_tENS_5tupleIJDpT_EEENSF_IJDpT0_EEE, symObjAddr: 0xC448, symBinAddr: 0x10000E990, symSize: 0x54 }
  - { offsetInCU: 0x252CB, offset: 0x252CB, size: 0x8, addend: 0x0, symName: __ZNSt3__122__compressed_pair_elemINS_9allocatorIZN15ChessBoardPrintC1ER10ChessBoardEUlNS3_5ColorEE_EELi1ELb1EEC2B7v160006IJRKS7_EJLm0EEEENS_21piecewise_construct_tENS_5tupleIJDpT_EEENS_15__tuple_indicesIJXspT0_EEEE, symObjAddr: 0xC49C, symBinAddr: 0x10000E9E4, symSize: 0x38 }
  - { offsetInCU: 0x2532E, offset: 0x2532E, size: 0x8, addend: 0x0, symName: __ZNSt3__112__tuple_leafILm0ERKNS_9allocatorIZN15ChessBoardPrintC1ER10ChessBoardEUlNS3_5ColorEE_EELb0EE3getB7v160006Ev, symObjAddr: 0xC4F8, symBinAddr: 0x10000EA40, symSize: 0x18 }
  - { offsetInCU: 0x25354, offset: 0x25354, size: 0x8, addend: 0x0, symName: __ZNSt3__110__function12__alloc_funcIZN15ChessBoardPrintC1ER10ChessBoardEUlNS3_5ColorEE_NS_9allocatorIS6_EEFvS5_EE7destroyB7v160006Ev, symObjAddr: 0xC510, symBinAddr: 0x10000EA58, symSize: 0x10 }
  - { offsetInCU: 0x2537A, offset: 0x2537A, size: 0x8, addend: 0x0, symName: __ZNSt3__110__function12__alloc_funcIZN15ChessBoardPrintC1ER10ChessBoardEUlNS3_5ColorEE_NS_9allocatorIS6_EEFvS5_EEclB7v160006EOS5_, symObjAddr: 0xC520, symBinAddr: 0x10000EA68, symSize: 0x30 }
  - { offsetInCU: 0x253AE, offset: 0x253AE, size: 0x8, addend: 0x0, symName: __ZNSt3__128__invoke_void_return_wrapperIvLb1EE6__callIJRZN15ChessBoardPrintC1ER10ChessBoardEUlNS4_5ColorEE_S6_EEEvDpOT_, symObjAddr: 0xC550, symBinAddr: 0x10000EA98, symSize: 0x2C }
  - { offsetInCU: 0x253F1, offset: 0x253F1, size: 0x8, addend: 0x0, symName: __ZNSt3__117__compressed_pairIZN15ChessBoardPrintC1ER10ChessBoardEUlNS2_5ColorEE_NS_9allocatorIS5_EEE5firstB7v160006Ev, symObjAddr: 0xC57C, symBinAddr: 0x10000EAC4, symSize: 0x24 }
  - { offsetInCU: 0x2541C, offset: 0x2541C, size: 0x8, addend: 0x0, symName: __ZZN15ChessBoardPrintC1ER10ChessBoardENKUlNS0_5ColorEE_clES2_, symObjAddr: 0xC5D0, symBinAddr: 0x10000EB18, symSize: 0x84 }
  - { offsetInCU: 0x25454, offset: 0x25454, size: 0x8, addend: 0x0, symName: __ZNSt3__122__compressed_pair_elemIZN15ChessBoardPrintC1ER10ChessBoardEUlNS2_5ColorEE_Li0ELb1EE5__getB7v160006Ev, symObjAddr: 0xC654, symBinAddr: 0x10000EB9C, symSize: 0x14 }
  - { offsetInCU: 0x2547A, offset: 0x2547A, size: 0x8, addend: 0x0, symName: __ZNSt3__110__function12__value_funcIFvN10ChessBoard5ColorEEE4swapB7v160006ERS5_, symObjAddr: 0xC668, symBinAddr: 0x10000EBB0, symSize: 0x304 }
  - { offsetInCU: 0x254D3, offset: 0x254D3, size: 0x8, addend: 0x0, symName: __ZNSt3__110__function12__value_funcIFvN10ChessBoard5ColorEEE9__as_baseEPv, symObjAddr: 0xC96C, symBinAddr: 0x10000EEB4, symSize: 0x14 }
  - { offsetInCU: 0x254F7, offset: 0x254F7, size: 0x8, addend: 0x0, symName: __ZNSt3__18functionIFvRKN10ChessBoard5PieceERKNS_12basic_stringIcNS_11char_traitsIcEENS_9allocatorIcEEEESC_EEC1IZN15ChessBoardPrintC1ERS1_EUlS4_SC_SC_E0_vEET_, symObjAddr: 0xC9BC, symBinAddr: 0x10000EF04, symSize: 0x2C }
  - { offsetInCU: 0x2553C, offset: 0x2553C, size: 0x8, addend: 0x0, symName: __ZNSt3__18functionIFvRKN10ChessBoard5PieceERKNS_12basic_stringIcNS_11char_traitsIcEENS_9allocatorIcEEEESC_EEC2IZN15ChessBoardPrintC1ERS1_EUlS4_SC_SC_E0_vEET_, symObjAddr: 0xC9E8, symBinAddr: 0x10000EF30, symSize: 0x30 }
  - { offsetInCU: 0x25581, offset: 0x25581, size: 0x8, addend: 0x0, symName: __ZNSt3__110__function12__value_funcIFvRKN10ChessBoard5PieceERKNS_12basic_stringIcNS_11char_traitsIcEENS_9allocatorIcEEEESD_EEC1B7v160006IZN15ChessBoardPrintC1ERS2_EUlS5_SD_SD_E0_vEEOT_, symObjAddr: 0xCA18, symBinAddr: 0x10000EF60, symSize: 0x50 }
  - { offsetInCU: 0x255C4, offset: 0x255C4, size: 0x8, addend: 0x0, symName: __ZNSt3__19allocatorIZN15ChessBoardPrintC1ER10ChessBoardEUlRKNS2_5PieceERKNS_12basic_stringIcNS_11char_traitsIcEENS0_IcEEEESD_E0_EC1B7v160006Ev, symObjAddr: 0xCA68, symBinAddr: 0x10000EFB0, symSize: 0x2C }
  - { offsetInCU: 0x255EE, offset: 0x255EE, size: 0x8, addend: 0x0, symName: __ZNSt3__110__function12__value_funcIFvRKN10ChessBoard5PieceERKNS_12basic_stringIcNS_11char_traitsIcEENS_9allocatorIcEEEESD_EEC1B7v160006IZN15ChessBoardPrintC1ERS2_EUlS5_SD_SD_E0_NS9_ISJ_EEEEOT_RKT0_, symObjAddr: 0xCA94, symBinAddr: 0x10000EFDC, symSize: 0x3C }
  - { offsetInCU: 0x25648, offset: 0x25648, size: 0x8, addend: 0x0, symName: __ZNSt3__19allocatorIZN15ChessBoardPrintC1ER10ChessBoardEUlRKNS2_5PieceERKNS_12basic_stringIcNS_11char_traitsIcEENS0_IcEEEESD_E0_EC2B7v160006Ev, symObjAddr: 0xCAD0, symBinAddr: 0x10000F018, symSize: 0x2C }
  - { offsetInCU: 0x25672, offset: 0x25672, size: 0x8, addend: 0x0, symName: __ZNSt3__116__non_trivial_ifILb1ENS_9allocatorIZN15ChessBoardPrintC1ER10ChessBoardEUlRKNS3_5PieceERKNS_12basic_stringIcNS_11char_traitsIcEENS1_IcEEEESE_E0_EEEC2B7v160006Ev, symObjAddr: 0xCAFC, symBinAddr: 0x10000F044, symSize: 0x14 }
  - { offsetInCU: 0x2569C, offset: 0x2569C, size: 0x8, addend: 0x0, symName: __ZNSt3__110__function12__value_funcIFvRKN10ChessBoard5PieceERKNS_12basic_stringIcNS_11char_traitsIcEENS_9allocatorIcEEEESD_EEC2B7v160006IZN15ChessBoardPrintC1ERS2_EUlS5_SD_SD_E0_NS9_ISJ_EEEEOT_RKT0_, symObjAddr: 0xCB10, symBinAddr: 0x10000F058, symSize: 0x94 }
  - { offsetInCU: 0x25743, offset: 0x25743, size: 0x8, addend: 0x0, symName: __ZNSt3__19allocatorINS_10__function6__funcIZN15ChessBoardPrintC1ER10ChessBoardEUlRKNS4_5PieceERKNS_12basic_stringIcNS_11char_traitsIcEENS0_IcEEEESF_E0_NS0_ISG_EEFvS8_SF_SF_EEEEC1B7v160006ISG_EERKNS0_IT_EE, symObjAddr: 0xCBBC, symBinAddr: 0x10000F104, symSize: 0x34 }
  - { offsetInCU: 0x25785, offset: 0x25785, size: 0x8, addend: 0x0, symName: __ZNSt3__19allocatorIZN15ChessBoardPrintC1ER10ChessBoardEUlRKNS2_5PieceERKNS_12basic_stringIcNS_11char_traitsIcEENS0_IcEEEESD_E0_EC1B7v160006INS_10__function6__funcISE_SF_FvS6_SD_SD_EEEEERKNS0_IT_EE, symObjAddr: 0xCBF0, symBinAddr: 0x10000F138, symSize: 0x34 }
  - { offsetInCU: 0x257C2, offset: 0x257C2, size: 0x8, addend: 0x0, symName: __ZNSt3__110__function6__funcIZN15ChessBoardPrintC1ER10ChessBoardEUlRKNS3_5PieceERKNS_12basic_stringIcNS_11char_traitsIcEENS_9allocatorIcEEEESF_E0_NSB_ISG_EEFvS7_SF_SF_EEC1B7v160006EOSG_OSH_, symObjAddr: 0xCC24, symBinAddr: 0x10000F16C, symSize: 0x3C }
  - { offsetInCU: 0x2580A, offset: 0x2580A, size: 0x8, addend: 0x0, symName: __ZNSt3__19allocatorINS_10__function6__funcIZN15ChessBoardPrintC1ER10ChessBoardEUlRKNS4_5PieceERKNS_12basic_stringIcNS_11char_traitsIcEENS0_IcEEEESF_E0_NS0_ISG_EEFvS8_SF_SF_EEEEC2B7v160006ISG_EERKNS0_IT_EE, symObjAddr: 0xCC60, symBinAddr: 0x10000F1A8, symSize: 0x30 }
  - { offsetInCU: 0x25847, offset: 0x25847, size: 0x8, addend: 0x0, symName: __ZNSt3__116__non_trivial_ifILb1ENS_9allocatorINS_10__function6__funcIZN15ChessBoardPrintC1ER10ChessBoardEUlRKNS5_5PieceERKNS_12basic_stringIcNS_11char_traitsIcEENS1_IcEEEESG_E0_NS1_ISH_EEFvS9_SG_SG_EEEEEEC2B7v160006Ev, symObjAddr: 0xCC90, symBinAddr: 0x10000F1D8, symSize: 0x14 }
  - { offsetInCU: 0x25871, offset: 0x25871, size: 0x8, addend: 0x0, symName: __ZNSt3__19allocatorIZN15ChessBoardPrintC1ER10ChessBoardEUlRKNS2_5PieceERKNS_12basic_stringIcNS_11char_traitsIcEENS0_IcEEEESD_E0_EC2B7v160006INS_10__function6__funcISE_SF_FvS6_SD_SD_EEEEERKNS0_IT_EE, symObjAddr: 0xCCA4, symBinAddr: 0x10000F1EC, symSize: 0x30 }
  - { offsetInCU: 0x258AE, offset: 0x258AE, size: 0x8, addend: 0x0, symName: __ZNSt3__110__function6__funcIZN15ChessBoardPrintC1ER10ChessBoardEUlRKNS3_5PieceERKNS_12basic_stringIcNS_11char_traitsIcEENS_9allocatorIcEEEESF_E0_NSB_ISG_EEFvS7_SF_SF_EEC2B7v160006EOSG_OSH_, symObjAddr: 0xCCD4, symBinAddr: 0x10000F21C, symSize: 0x88 }
  - { offsetInCU: 0x258F6, offset: 0x258F6, size: 0x8, addend: 0x0, symName: __ZNSt3__110__function12__alloc_funcIZN15ChessBoardPrintC1ER10ChessBoardEUlRKNS3_5PieceERKNS_12basic_stringIcNS_11char_traitsIcEENS_9allocatorIcEEEESF_E0_NSB_ISG_EEFvS7_SF_SF_EEC1B7v160006EOSG_OSH_, symObjAddr: 0xCD5C, symBinAddr: 0x10000F2A4, symSize: 0x3C }
  - { offsetInCU: 0x2593C, offset: 0x2593C, size: 0x8, addend: 0x0, symName: __ZNSt3__110__function6__funcIZN15ChessBoardPrintC1ER10ChessBoardEUlRKNS3_5PieceERKNS_12basic_stringIcNS_11char_traitsIcEENS_9allocatorIcEEEESF_E0_NSB_ISG_EEFvS7_SF_SF_EED1Ev, symObjAddr: 0xCD98, symBinAddr: 0x10000F2E0, symSize: 0x2C }
  - { offsetInCU: 0x25969, offset: 0x25969, size: 0x8, addend: 0x0, symName: __ZNSt3__110__function6__funcIZN15ChessBoardPrintC1ER10ChessBoardEUlRKNS3_5PieceERKNS_12basic_stringIcNS_11char_traitsIcEENS_9allocatorIcEEEESF_E0_NSB_ISG_EEFvS7_SF_SF_EED0Ev, symObjAddr: 0xCDC4, symBinAddr: 0x10000F30C, symSize: 0x30 }
  - { offsetInCU: 0x25996, offset: 0x25996, size: 0x8, addend: 0x0, symName: __ZNKSt3__110__function6__funcIZN15ChessBoardPrintC1ER10ChessBoardEUlRKNS3_5PieceERKNS_12basic_stringIcNS_11char_traitsIcEENS_9allocatorIcEEEESF_E0_NSB_ISG_EEFvS7_SF_SF_EE7__cloneEv, symObjAddr: 0xCDF4, symBinAddr: 0x10000F33C, symSize: 0xFC }
  - { offsetInCU: 0x259E8, offset: 0x259E8, size: 0x8, addend: 0x0, symName: __ZNKSt3__110__function6__funcIZN15ChessBoardPrintC1ER10ChessBoardEUlRKNS3_5PieceERKNS_12basic_stringIcNS_11char_traitsIcEENS_9allocatorIcEEEESF_E0_NSB_ISG_EEFvS7_SF_SF_EE7__cloneEPNS0_6__baseISI_EE, symObjAddr: 0xCEF0, symBinAddr: 0x10000F438, symSize: 0x58 }
  - { offsetInCU: 0x25A1F, offset: 0x25A1F, size: 0x8, addend: 0x0, symName: __ZNSt3__110__function6__funcIZN15ChessBoardPrintC1ER10ChessBoardEUlRKNS3_5PieceERKNS_12basic_stringIcNS_11char_traitsIcEENS_9allocatorIcEEEESF_E0_NSB_ISG_EEFvS7_SF_SF_EE7destroyEv, symObjAddr: 0xCF48, symBinAddr: 0x10000F490, symSize: 0x28 }
  - { offsetInCU: 0x25A47, offset: 0x25A47, size: 0x8, addend: 0x0, symName: __ZNSt3__110__function6__funcIZN15ChessBoardPrintC1ER10ChessBoardEUlRKNS3_5PieceERKNS_12basic_stringIcNS_11char_traitsIcEENS_9allocatorIcEEEESF_E0_NSB_ISG_EEFvS7_SF_SF_EE18destroy_deallocateEv, symObjAddr: 0xCF70, symBinAddr: 0x10000F4B8, symSize: 0x58 }
  - { offsetInCU: 0x25A8A, offset: 0x25A8A, size: 0x8, addend: 0x0, symName: __ZNSt3__110__function6__funcIZN15ChessBoardPrintC1ER10ChessBoardEUlRKNS3_5PieceERKNS_12basic_stringIcNS_11char_traitsIcEENS_9allocatorIcEEEESF_E0_NSB_ISG_EEFvS7_SF_SF_EEclES7_SF_SF_, symObjAddr: 0xCFC8, symBinAddr: 0x10000F510, symSize: 0x40 }
  - { offsetInCU: 0x25ADF, offset: 0x25ADF, size: 0x8, addend: 0x0, symName: __ZNKSt3__110__function6__funcIZN15ChessBoardPrintC1ER10ChessBoardEUlRKNS3_5PieceERKNS_12basic_stringIcNS_11char_traitsIcEENS_9allocatorIcEEEESF_E0_NSB_ISG_EEFvS7_SF_SF_EE6targetERKSt9type_info, symObjAddr: 0xD008, symBinAddr: 0x10000F550, symSize: 0x60 }
  - { offsetInCU: 0x25B16, offset: 0x25B16, size: 0x8, addend: 0x0, symName: __ZNKSt3__110__function6__funcIZN15ChessBoardPrintC1ER10ChessBoardEUlRKNS3_5PieceERKNS_12basic_stringIcNS_11char_traitsIcEENS_9allocatorIcEEEESF_E0_NSB_ISG_EEFvS7_SF_SF_EE11target_typeEv, symObjAddr: 0xD068, symBinAddr: 0x10000F5B0, symSize: 0x18 }
  - { offsetInCU: 0x25B3E, offset: 0x25B3E, size: 0x8, addend: 0x0, symName: __ZNSt3__110__function12__alloc_funcIZN15ChessBoardPrintC1ER10ChessBoardEUlRKNS3_5PieceERKNS_12basic_stringIcNS_11char_traitsIcEENS_9allocatorIcEEEESF_E0_NSB_ISG_EEFvS7_SF_SF_EEC2B7v160006EOSG_OSH_, symObjAddr: 0xD080, symBinAddr: 0x10000F5C8, symSize: 0x5C }
  - { offsetInCU: 0x25B84, offset: 0x25B84, size: 0x8, addend: 0x0, symName: __ZNSt3__117__compressed_pairIZN15ChessBoardPrintC1ER10ChessBoardEUlRKNS2_5PieceERKNS_12basic_stringIcNS_11char_traitsIcEENS_9allocatorIcEEEESE_E0_NSA_ISF_EEEC1B7v160006IJOSF_EJOSG_EEENS_21piecewise_construct_tENS_5tupleIJDpT_EEENSM_IJDpT0_EEE, symObjAddr: 0xD134, symBinAddr: 0x10000F67C, symSize: 0x3C }
  - { offsetInCU: 0x25BEE, offset: 0x25BEE, size: 0x8, addend: 0x0, symName: __ZNSt3__15tupleIJOZN15ChessBoardPrintC1ER10ChessBoardEUlRKNS2_5PieceERKNS_12basic_stringIcNS_11char_traitsIcEENS_9allocatorIcEEEESE_E0_EEC1B7v160006IJSF_ELi0EEEDpOT_, symObjAddr: 0xD170, symBinAddr: 0x10000F6B8, symSize: 0x34 }
  - { offsetInCU: 0x25C38, offset: 0x25C38, size: 0x8, addend: 0x0, symName: __ZNSt3__15tupleIJOZN15ChessBoardPrintC1ER10ChessBoardEUlRKNS2_5PieceERKNS_12basic_stringIcNS_11char_traitsIcEENS_9allocatorIcEEEESE_E0_EEC2B7v160006IJSF_ELi0EEEDpOT_, symObjAddr: 0xD1A4, symBinAddr: 0x10000F6EC, symSize: 0x34 }
  - { offsetInCU: 0x25C82, offset: 0x25C82, size: 0x8, addend: 0x0, symName: __ZNSt3__112__tuple_implINS_15__tuple_indicesIJLm0EEEEJOZN15ChessBoardPrintC1ER10ChessBoardEUlRKNS4_5PieceERKNS_12basic_stringIcNS_11char_traitsIcEENS_9allocatorIcEEEESG_E0_EEC1B7v160006IJLm0EEJSI_EJEJEJSH_EEENS1_IJXspT_EEEENS_13__tuple_typesIJDpT0_EEENS1_IJXspT1_EEEENSM_IJDpT2_EEEDpOT3_, symObjAddr: 0xD1D8, symBinAddr: 0x10000F720, symSize: 0x34 }
  - { offsetInCU: 0x25D17, offset: 0x25D17, size: 0x8, addend: 0x0, symName: __ZNSt3__112__tuple_implINS_15__tuple_indicesIJLm0EEEEJOZN15ChessBoardPrintC1ER10ChessBoardEUlRKNS4_5PieceERKNS_12basic_stringIcNS_11char_traitsIcEENS_9allocatorIcEEEESG_E0_EEC2B7v160006IJLm0EEJSI_EJEJEJSH_EEENS1_IJXspT_EEEENS_13__tuple_typesIJDpT0_EEENS1_IJXspT1_EEEENSM_IJDpT2_EEEDpOT3_, symObjAddr: 0xD20C, symBinAddr: 0x10000F754, symSize: 0x34 }
  - { offsetInCU: 0x25DAC, offset: 0x25DAC, size: 0x8, addend: 0x0, symName: __ZNSt3__112__tuple_leafILm0EOZN15ChessBoardPrintC1ER10ChessBoardEUlRKNS2_5PieceERKNS_12basic_stringIcNS_11char_traitsIcEENS_9allocatorIcEEEESE_E0_Lb0EEC2B7v160006ISF_vEEOT_, symObjAddr: 0xD240, symBinAddr: 0x10000F788, symSize: 0x20 }
  - { offsetInCU: 0x25DEF, offset: 0x25DEF, size: 0x8, addend: 0x0, symName: __ZNSt3__15tupleIJONS_9allocatorIZN15ChessBoardPrintC1ER10ChessBoardEUlRKNS3_5PieceERKNS_12basic_stringIcNS_11char_traitsIcEENS1_IcEEEESE_E0_EEEEC1B7v160006IJSG_ELi0EEEDpOT_, symObjAddr: 0xD260, symBinAddr: 0x10000F7A8, symSize: 0x34 }
  - { offsetInCU: 0x25E39, offset: 0x25E39, size: 0x8, addend: 0x0, symName: __ZNSt3__15tupleIJONS_9allocatorIZN15ChessBoardPrintC1ER10ChessBoardEUlRKNS3_5PieceERKNS_12basic_stringIcNS_11char_traitsIcEENS1_IcEEEESE_E0_EEEEC2B7v160006IJSG_ELi0EEEDpOT_, symObjAddr: 0xD294, symBinAddr: 0x10000F7DC, symSize: 0x34 }
  - { offsetInCU: 0x25E83, offset: 0x25E83, size: 0x8, addend: 0x0, symName: __ZNSt3__112__tuple_implINS_15__tuple_indicesIJLm0EEEEJONS_9allocatorIZN15ChessBoardPrintC1ER10ChessBoardEUlRKNS5_5PieceERKNS_12basic_stringIcNS_11char_traitsIcEENS3_IcEEEESG_E0_EEEEC1B7v160006IJLm0EEJSJ_EJEJEJSI_EEENS1_IJXspT_EEEENS_13__tuple_typesIJDpT0_EEENS1_IJXspT1_EEEENSN_IJDpT2_EEEDpOT3_, symObjAddr: 0xD2C8, symBinAddr: 0x10000F810, symSize: 0x34 }
  - { offsetInCU: 0x25F18, offset: 0x25F18, size: 0x8, addend: 0x0, symName: __ZNSt3__112__tuple_implINS_15__tuple_indicesIJLm0EEEEJONS_9allocatorIZN15ChessBoardPrintC1ER10ChessBoardEUlRKNS5_5PieceERKNS_12basic_stringIcNS_11char_traitsIcEENS3_IcEEEESG_E0_EEEEC2B7v160006IJLm0EEJSJ_EJEJEJSI_EEENS1_IJXspT_EEEENS_13__tuple_typesIJDpT0_EEENS1_IJXspT1_EEEENSN_IJDpT2_EEEDpOT3_, symObjAddr: 0xD2FC, symBinAddr: 0x10000F844, symSize: 0x34 }
  - { offsetInCU: 0x25FAD, offset: 0x25FAD, size: 0x8, addend: 0x0, symName: __ZNSt3__112__tuple_leafILm0EONS_9allocatorIZN15ChessBoardPrintC1ER10ChessBoardEUlRKNS3_5PieceERKNS_12basic_stringIcNS_11char_traitsIcEENS1_IcEEEESE_E0_EELb0EEC2B7v160006ISG_vEEOT_, symObjAddr: 0xD330, symBinAddr: 0x10000F878, symSize: 0x20 }
  - { offsetInCU: 0x25FF0, offset: 0x25FF0, size: 0x8, addend: 0x0, symName: __ZNSt3__117__compressed_pairIZN15ChessBoardPrintC1ER10ChessBoardEUlRKNS2_5PieceERKNS_12basic_stringIcNS_11char_traitsIcEENS_9allocatorIcEEEESE_E0_NSA_ISF_EEEC2B7v160006IJOSF_EJOSG_EEENS_21piecewise_construct_tENS_5tupleIJDpT_EEENSM_IJDpT0_EEE, symObjAddr: 0xD350, symBinAddr: 0x10000F898, symSize: 0x54 }
  - { offsetInCU: 0x2605A, offset: 0x2605A, size: 0x8, addend: 0x0, symName: __ZNSt3__122__compressed_pair_elemIZN15ChessBoardPrintC1ER10ChessBoardEUlRKNS2_5PieceERKNS_12basic_stringIcNS_11char_traitsIcEENS_9allocatorIcEEEESE_E0_Li0ELb1EEC2B7v160006IJOSF_EJLm0EEEENS_21piecewise_construct_tENS_5tupleIJDpT_EEENS_15__tuple_indicesIJXspT0_EEEE, symObjAddr: 0xD3A4, symBinAddr: 0x10000F8EC, symSize: 0x38 }
  - { offsetInCU: 0x260BD, offset: 0x260BD, size: 0x8, addend: 0x0, symName: __ZNSt3__122__compressed_pair_elemINS_9allocatorIZN15ChessBoardPrintC1ER10ChessBoardEUlRKNS3_5PieceERKNS_12basic_stringIcNS_11char_traitsIcEENS1_IcEEEESE_E0_EELi1ELb1EEC2B7v160006IJOSG_EJLm0EEEENS_21piecewise_construct_tENS_5tupleIJDpT_EEENS_15__tuple_indicesIJXspT0_EEEE, symObjAddr: 0xD3DC, symBinAddr: 0x10000F924, symSize: 0x38 }
  - { offsetInCU: 0x26120, offset: 0x26120, size: 0x8, addend: 0x0, symName: __ZNSt3__112__tuple_leafILm0EOZN15ChessBoardPrintC1ER10ChessBoardEUlRKNS2_5PieceERKNS_12basic_stringIcNS_11char_traitsIcEENS_9allocatorIcEEEESE_E0_Lb0EE3getB7v160006Ev, symObjAddr: 0xD438, symBinAddr: 0x10000F980, symSize: 0x18 }
  - { offsetInCU: 0x26146, offset: 0x26146, size: 0x8, addend: 0x0, symName: __ZNSt3__112__tuple_leafILm0EONS_9allocatorIZN15ChessBoardPrintC1ER10ChessBoardEUlRKNS3_5PieceERKNS_12basic_stringIcNS_11char_traitsIcEENS1_IcEEEESE_E0_EELb0EE3getB7v160006Ev, symObjAddr: 0xD474, symBinAddr: 0x10000F9BC, symSize: 0x18 }
  - { offsetInCU: 0x2616C, offset: 0x2616C, size: 0x8, addend: 0x0, symName: __ZNSt3__110__function6__funcIZN15ChessBoardPrintC1ER10ChessBoardEUlRKNS3_5PieceERKNS_12basic_stringIcNS_11char_traitsIcEENS_9allocatorIcEEEESF_E0_NSB_ISG_EEFvS7_SF_SF_EED2Ev, symObjAddr: 0xD48C, symBinAddr: 0x10000F9D4, symSize: 0x2C }
  - { offsetInCU: 0x26199, offset: 0x26199, size: 0x8, addend: 0x0, symName: __ZNKSt3__110__function12__alloc_funcIZN15ChessBoardPrintC1ER10ChessBoardEUlRKNS3_5PieceERKNS_12basic_stringIcNS_11char_traitsIcEENS_9allocatorIcEEEESF_E0_NSB_ISG_EEFvS7_SF_SF_EE15__get_allocatorB7v160006Ev, symObjAddr: 0xD4B8, symBinAddr: 0x10000FA00, symSize: 0x24 }
  - { offsetInCU: 0x261BF, offset: 0x261BF, size: 0x8, addend: 0x0, symName: __ZNSt3__19allocatorINS_10__function6__funcIZN15ChessBoardPrintC1ER10ChessBoardEUlRKNS4_5PieceERKNS_12basic_stringIcNS_11char_traitsIcEENS0_IcEEEESF_E0_NS0_ISG_EEFvS8_SF_SF_EEEE8allocateB7v160006Em, symObjAddr: 0xD4DC, symBinAddr: 0x10000FA24, symSize: 0x58 }
  - { offsetInCU: 0x26202, offset: 0x26202, size: 0x8, addend: 0x0, symName: __ZNSt3__122__allocator_destructorINS_9allocatorINS_10__function6__funcIZN15ChessBoardPrintC1ER10ChessBoardEUlRKNS5_5PieceERKNS_12basic_stringIcNS_11char_traitsIcEENS1_IcEEEESG_E0_NS1_ISH_EEFvS9_SG_SG_EEEEEEC1B7v160006ERSL_m, symObjAddr: 0xD534, symBinAddr: 0x10000FA7C, symSize: 0x3C }
  - { offsetInCU: 0x262D6, offset: 0x262D6, size: 0x8, addend: 0x0, symName: __ZNSt3__110unique_ptrINS_10__function6__funcIZN15ChessBoardPrintC1ER10ChessBoardEUlRKNS4_5PieceERKNS_12basic_stringIcNS_11char_traitsIcEENS_9allocatorIcEEEESG_E0_NSC_ISH_EEFvS8_SG_SG_EEENS_22__allocator_destructorINSC_ISK_EEEEEC1B7v160006ILb1EvEEPSK_NS_16__dependent_typeINS_27__unique_ptr_deleter_sfinaeISN_EEXT_EE20__good_rval_ref_typeE, symObjAddr: 0xD570, symBinAddr: 0x10000FAB8, symSize: 0x3C }
  - { offsetInCU: 0x26327, offset: 0x26327, size: 0x8, addend: 0x0, symName: __ZNKSt3__110unique_ptrINS_10__function6__funcIZN15ChessBoardPrintC1ER10ChessBoardEUlRKNS4_5PieceERKNS_12basic_stringIcNS_11char_traitsIcEENS_9allocatorIcEEEESG_E0_NSC_ISH_EEFvS8_SG_SG_EEENS_22__allocator_destructorINSC_ISK_EEEEE3getB7v160006Ev, symObjAddr: 0xD5AC, symBinAddr: 0x10000FAF4, symSize: 0x28 }
  - { offsetInCU: 0x2634D, offset: 0x2634D, size: 0x8, addend: 0x0, symName: __ZNKSt3__110__function12__alloc_funcIZN15ChessBoardPrintC1ER10ChessBoardEUlRKNS3_5PieceERKNS_12basic_stringIcNS_11char_traitsIcEENS_9allocatorIcEEEESF_E0_NSB_ISG_EEFvS7_SF_SF_EE8__targetB7v160006Ev, symObjAddr: 0xD5D4, symBinAddr: 0x10000FB1C, symSize: 0x24 }
  - { offsetInCU: 0x26373, offset: 0x26373, size: 0x8, addend: 0x0, symName: __ZNSt3__110__function6__funcIZN15ChessBoardPrintC1ER10ChessBoardEUlRKNS3_5PieceERKNS_12basic_stringIcNS_11char_traitsIcEENS_9allocatorIcEEEESF_E0_NSB_ISG_EEFvS7_SF_SF_EEC1B7v160006ERKSG_OSH_, symObjAddr: 0xD5F8, symBinAddr: 0x10000FB40, symSize: 0x3C }
  - { offsetInCU: 0x263BB, offset: 0x263BB, size: 0x8, addend: 0x0, symName: __ZNSt3__110unique_ptrINS_10__function6__funcIZN15ChessBoardPrintC1ER10ChessBoardEUlRKNS4_5PieceERKNS_12basic_stringIcNS_11char_traitsIcEENS_9allocatorIcEEEESG_E0_NSC_ISH_EEFvS8_SG_SG_EEENS_22__allocator_destructorINSC_ISK_EEEEE7releaseB7v160006Ev, symObjAddr: 0xD634, symBinAddr: 0x10000FB7C, symSize: 0x44 }
  - { offsetInCU: 0x263F0, offset: 0x263F0, size: 0x8, addend: 0x0, symName: __ZNSt3__110unique_ptrINS_10__function6__funcIZN15ChessBoardPrintC1ER10ChessBoardEUlRKNS4_5PieceERKNS_12basic_stringIcNS_11char_traitsIcEENS_9allocatorIcEEEESG_E0_NSC_ISH_EEFvS8_SG_SG_EEENS_22__allocator_destructorINSC_ISK_EEEEED1B7v160006Ev, symObjAddr: 0xD678, symBinAddr: 0x10000FBC0, symSize: 0x2C }
  - { offsetInCU: 0x2641A, offset: 0x2641A, size: 0x8, addend: 0x0, symName: __ZNKSt3__117__compressed_pairIZN15ChessBoardPrintC1ER10ChessBoardEUlRKNS2_5PieceERKNS_12basic_stringIcNS_11char_traitsIcEENS_9allocatorIcEEEESE_E0_NSA_ISF_EEE6secondB7v160006Ev, symObjAddr: 0xD6A4, symBinAddr: 0x10000FBEC, symSize: 0x24 }
  - { offsetInCU: 0x26440, offset: 0x26440, size: 0x8, addend: 0x0, symName: __ZNKSt3__122__compressed_pair_elemINS_9allocatorIZN15ChessBoardPrintC1ER10ChessBoardEUlRKNS3_5PieceERKNS_12basic_stringIcNS_11char_traitsIcEENS1_IcEEEESE_E0_EELi1ELb1EE5__getB7v160006Ev, symObjAddr: 0xD6C8, symBinAddr: 0x10000FC10, symSize: 0x14 }
  - { offsetInCU: 0x26470, offset: 0x26470, size: 0x8, addend: 0x0, symName: __ZNSt3__116allocator_traitsINS_9allocatorINS_10__function6__funcIZN15ChessBoardPrintC1ER10ChessBoardEUlRKNS5_5PieceERKNS_12basic_stringIcNS_11char_traitsIcEENS1_IcEEEESG_E0_NS1_ISH_EEFvS9_SG_SG_EEEEEE8max_sizeB7v160006ISL_vEEmRKSL_, symObjAddr: 0xD6DC, symBinAddr: 0x10000FC24, symSize: 0x24 }
  - { offsetInCU: 0x2649E, offset: 0x2649E, size: 0x8, addend: 0x0, symName: __ZNKSt3__19allocatorINS_10__function6__funcIZN15ChessBoardPrintC1ER10ChessBoardEUlRKNS4_5PieceERKNS_12basic_stringIcNS_11char_traitsIcEENS0_IcEEEESF_E0_NS0_ISG_EEFvS8_SF_SF_EEEE8max_sizeB7v160006Ev, symObjAddr: 0xD700, symBinAddr: 0x10000FC48, symSize: 0x14 }
  - { offsetInCU: 0x264C4, offset: 0x264C4, size: 0x8, addend: 0x0, symName: __ZNSt3__122__allocator_destructorINS_9allocatorINS_10__function6__funcIZN15ChessBoardPrintC1ER10ChessBoardEUlRKNS5_5PieceERKNS_12basic_stringIcNS_11char_traitsIcEENS1_IcEEEESG_E0_NS1_ISH_EEFvS9_SG_SG_EEEEEEC2B7v160006ERSL_m, symObjAddr: 0xD714, symBinAddr: 0x10000FC5C, symSize: 0x2C }
  - { offsetInCU: 0x2650A, offset: 0x2650A, size: 0x8, addend: 0x0, symName: __ZNSt3__110unique_ptrINS_10__function6__funcIZN15ChessBoardPrintC1ER10ChessBoardEUlRKNS4_5PieceERKNS_12basic_stringIcNS_11char_traitsIcEENS_9allocatorIcEEEESG_E0_NSC_ISH_EEFvS8_SG_SG_EEENS_22__allocator_destructorINSC_ISK_EEEEEC2B7v160006ILb1EvEEPSK_NS_16__dependent_typeINS_27__unique_ptr_deleter_sfinaeISN_EEXT_EE20__good_rval_ref_typeE, symObjAddr: 0xD740, symBinAddr: 0x10000FC88, symSize: 0x48 }
  - { offsetInCU: 0x2655B, offset: 0x2655B, size: 0x8, addend: 0x0, symName: __ZNSt3__117__compressed_pairIPNS_10__function6__funcIZN15ChessBoardPrintC1ER10ChessBoardEUlRKNS4_5PieceERKNS_12basic_stringIcNS_11char_traitsIcEENS_9allocatorIcEEEESG_E0_NSC_ISH_EEFvS8_SG_SG_EEENS_22__allocator_destructorINSC_ISK_EEEEEC1B7v160006IRSL_SO_EEOT_OT0_, symObjAddr: 0xD788, symBinAddr: 0x10000FCD0, symSize: 0x3C }
  - { offsetInCU: 0x265B3, offset: 0x265B3, size: 0x8, addend: 0x0, symName: __ZNSt3__117__compressed_pairIPNS_10__function6__funcIZN15ChessBoardPrintC1ER10ChessBoardEUlRKNS4_5PieceERKNS_12basic_stringIcNS_11char_traitsIcEENS_9allocatorIcEEEESG_E0_NSC_ISH_EEFvS8_SG_SG_EEENS_22__allocator_destructorINSC_ISK_EEEEEC2B7v160006IRSL_SO_EEOT_OT0_, symObjAddr: 0xD7C4, symBinAddr: 0x10000FD0C, symSize: 0x48 }
  - { offsetInCU: 0x2660B, offset: 0x2660B, size: 0x8, addend: 0x0, symName: __ZNSt3__122__compressed_pair_elemIPNS_10__function6__funcIZN15ChessBoardPrintC1ER10ChessBoardEUlRKNS4_5PieceERKNS_12basic_stringIcNS_11char_traitsIcEENS_9allocatorIcEEEESG_E0_NSC_ISH_EEFvS8_SG_SG_EEELi0ELb0EEC2B7v160006IRSL_vEEOT_, symObjAddr: 0xD80C, symBinAddr: 0x10000FD54, symSize: 0x24 }
  - { offsetInCU: 0x2664D, offset: 0x2664D, size: 0x8, addend: 0x0, symName: __ZNSt3__122__compressed_pair_elemINS_22__allocator_destructorINS_9allocatorINS_10__function6__funcIZN15ChessBoardPrintC1ER10ChessBoardEUlRKNS6_5PieceERKNS_12basic_stringIcNS_11char_traitsIcEENS2_IcEEEESH_E0_NS2_ISI_EEFvSA_SH_SH_EEEEEEELi1ELb0EEC2B7v160006ISN_vEEOT_, symObjAddr: 0xD830, symBinAddr: 0x10000FD78, symSize: 0x24 }
  - { offsetInCU: 0x2668F, offset: 0x2668F, size: 0x8, addend: 0x0, symName: __ZNKSt3__117__compressed_pairIPNS_10__function6__funcIZN15ChessBoardPrintC1ER10ChessBoardEUlRKNS4_5PieceERKNS_12basic_stringIcNS_11char_traitsIcEENS_9allocatorIcEEEESG_E0_NSC_ISH_EEFvS8_SG_SG_EEENS_22__allocator_destructorINSC_ISK_EEEEE5firstB7v160006Ev, symObjAddr: 0xD854, symBinAddr: 0x10000FD9C, symSize: 0x24 }
  - { offsetInCU: 0x266B5, offset: 0x266B5, size: 0x8, addend: 0x0, symName: __ZNKSt3__122__compressed_pair_elemIPNS_10__function6__funcIZN15ChessBoardPrintC1ER10ChessBoardEUlRKNS4_5PieceERKNS_12basic_stringIcNS_11char_traitsIcEENS_9allocatorIcEEEESG_E0_NSC_ISH_EEFvS8_SG_SG_EEELi0ELb0EE5__getB7v160006Ev, symObjAddr: 0xD878, symBinAddr: 0x10000FDC0, symSize: 0x14 }
  - { offsetInCU: 0x266DB, offset: 0x266DB, size: 0x8, addend: 0x0, symName: __ZNKSt3__117__compressed_pairIZN15ChessBoardPrintC1ER10ChessBoardEUlRKNS2_5PieceERKNS_12basic_stringIcNS_11char_traitsIcEENS_9allocatorIcEEEESE_E0_NSA_ISF_EEE5firstB7v160006Ev, symObjAddr: 0xD88C, symBinAddr: 0x10000FDD4, symSize: 0x24 }
  - { offsetInCU: 0x26701, offset: 0x26701, size: 0x8, addend: 0x0, symName: __ZNKSt3__122__compressed_pair_elemIZN15ChessBoardPrintC1ER10ChessBoardEUlRKNS2_5PieceERKNS_12basic_stringIcNS_11char_traitsIcEENS_9allocatorIcEEEESE_E0_Li0ELb1EE5__getB7v160006Ev, symObjAddr: 0xD8B0, symBinAddr: 0x10000FDF8, symSize: 0x14 }
  - { offsetInCU: 0x26727, offset: 0x26727, size: 0x8, addend: 0x0, symName: __ZNSt3__110__function6__funcIZN15ChessBoardPrintC1ER10ChessBoardEUlRKNS3_5PieceERKNS_12basic_stringIcNS_11char_traitsIcEENS_9allocatorIcEEEESF_E0_NSB_ISG_EEFvS7_SF_SF_EEC2B7v160006ERKSG_OSH_, symObjAddr: 0xD8C4, symBinAddr: 0x10000FE0C, symSize: 0x88 }
  - { offsetInCU: 0x2676F, offset: 0x2676F, size: 0x8, addend: 0x0, symName: __ZNSt3__110__function12__alloc_funcIZN15ChessBoardPrintC1ER10ChessBoardEUlRKNS3_5PieceERKNS_12basic_stringIcNS_11char_traitsIcEENS_9allocatorIcEEEESF_E0_NSB_ISG_EEFvS7_SF_SF_EEC1B7v160006ERKSG_OSH_, symObjAddr: 0xD94C, symBinAddr: 0x10000FE94, symSize: 0x3C }
  - { offsetInCU: 0x267B5, offset: 0x267B5, size: 0x8, addend: 0x0, symName: __ZNSt3__110__function12__alloc_funcIZN15ChessBoardPrintC1ER10ChessBoardEUlRKNS3_5PieceERKNS_12basic_stringIcNS_11char_traitsIcEENS_9allocatorIcEEEESF_E0_NSB_ISG_EEFvS7_SF_SF_EEC2B7v160006ERKSG_OSH_, symObjAddr: 0xD988, symBinAddr: 0x10000FED0, symSize: 0x5C }
  - { offsetInCU: 0x267FB, offset: 0x267FB, size: 0x8, addend: 0x0, symName: __ZNSt3__117__compressed_pairIZN15ChessBoardPrintC1ER10ChessBoardEUlRKNS2_5PieceERKNS_12basic_stringIcNS_11char_traitsIcEENS_9allocatorIcEEEESE_E0_NSA_ISF_EEEC1B7v160006IJRKSF_EJOSG_EEENS_21piecewise_construct_tENS_5tupleIJDpT_EEENSN_IJDpT0_EEE, symObjAddr: 0xDA10, symBinAddr: 0x10000FF58, symSize: 0x3C }
  - { offsetInCU: 0x26865, offset: 0x26865, size: 0x8, addend: 0x0, symName: __ZNSt3__15tupleIJRKZN15ChessBoardPrintC1ER10ChessBoardEUlRKNS2_5PieceERKNS_12basic_stringIcNS_11char_traitsIcEENS_9allocatorIcEEEESE_E0_EEC1B7v160006INS_4_AndELi0EEESH_, symObjAddr: 0xDA4C, symBinAddr: 0x10000FF94, symSize: 0x34 }
  - { offsetInCU: 0x268AD, offset: 0x268AD, size: 0x8, addend: 0x0, symName: __ZNSt3__15tupleIJRKZN15ChessBoardPrintC1ER10ChessBoardEUlRKNS2_5PieceERKNS_12basic_stringIcNS_11char_traitsIcEENS_9allocatorIcEEEESE_E0_EEC2B7v160006INS_4_AndELi0EEESH_, symObjAddr: 0xDA80, symBinAddr: 0x10000FFC8, symSize: 0x34 }
  - { offsetInCU: 0x268F5, offset: 0x268F5, size: 0x8, addend: 0x0, symName: __ZNSt3__112__tuple_implINS_15__tuple_indicesIJLm0EEEEJRKZN15ChessBoardPrintC1ER10ChessBoardEUlRKNS4_5PieceERKNS_12basic_stringIcNS_11char_traitsIcEENS_9allocatorIcEEEESG_E0_EEC1B7v160006IJLm0EEJSJ_EJEJEJSJ_EEENS1_IJXspT_EEEENS_13__tuple_typesIJDpT0_EEENS1_IJXspT1_EEEENSN_IJDpT2_EEEDpOT3_, symObjAddr: 0xDAB4, symBinAddr: 0x10000FFFC, symSize: 0x34 }
  - { offsetInCU: 0x2698A, offset: 0x2698A, size: 0x8, addend: 0x0, symName: __ZNSt3__112__tuple_implINS_15__tuple_indicesIJLm0EEEEJRKZN15ChessBoardPrintC1ER10ChessBoardEUlRKNS4_5PieceERKNS_12basic_stringIcNS_11char_traitsIcEENS_9allocatorIcEEEESG_E0_EEC2B7v160006IJLm0EEJSJ_EJEJEJSJ_EEENS1_IJXspT_EEEENS_13__tuple_typesIJDpT0_EEENS1_IJXspT1_EEEENSN_IJDpT2_EEEDpOT3_, symObjAddr: 0xDAE8, symBinAddr: 0x100010030, symSize: 0x34 }
  - { offsetInCU: 0x26A1F, offset: 0x26A1F, size: 0x8, addend: 0x0, symName: __ZNSt3__112__tuple_leafILm0ERKZN15ChessBoardPrintC1ER10ChessBoardEUlRKNS2_5PieceERKNS_12basic_stringIcNS_11char_traitsIcEENS_9allocatorIcEEEESE_E0_Lb0EEC2B7v160006ISH_vEEOT_, symObjAddr: 0xDB1C, symBinAddr: 0x100010064, symSize: 0x20 }
  - { offsetInCU: 0x26A62, offset: 0x26A62, size: 0x8, addend: 0x0, symName: __ZNSt3__117__compressed_pairIZN15ChessBoardPrintC1ER10ChessBoardEUlRKNS2_5PieceERKNS_12basic_stringIcNS_11char_traitsIcEENS_9allocatorIcEEEESE_E0_NSA_ISF_EEEC2B7v160006IJRKSF_EJOSG_EEENS_21piecewise_construct_tENS_5tupleIJDpT_EEENSN_IJDpT0_EEE, symObjAddr: 0xDB3C, symBinAddr: 0x100010084, symSize: 0x54 }
  - { offsetInCU: 0x26ACC, offset: 0x26ACC, size: 0x8, addend: 0x0, symName: __ZNSt3__122__compressed_pair_elemIZN15ChessBoardPrintC1ER10ChessBoardEUlRKNS2_5PieceERKNS_12basic_stringIcNS_11char_traitsIcEENS_9allocatorIcEEEESE_E0_Li0ELb1EEC2B7v160006IJRKSF_EJLm0EEEENS_21piecewise_construct_tENS_5tupleIJDpT_EEENS_15__tuple_indicesIJXspT0_EEEE, symObjAddr: 0xDB90, symBinAddr: 0x1000100D8, symSize: 0x38 }
  - { offsetInCU: 0x26B2F, offset: 0x26B2F, size: 0x8, addend: 0x0, symName: __ZNSt3__112__tuple_leafILm0ERKZN15ChessBoardPrintC1ER10ChessBoardEUlRKNS2_5PieceERKNS_12basic_stringIcNS_11char_traitsIcEENS_9allocatorIcEEEESE_E0_Lb0EE3getB7v160006Ev, symObjAddr: 0xDBEC, symBinAddr: 0x100010134, symSize: 0x18 }
  - { offsetInCU: 0x26B55, offset: 0x26B55, size: 0x8, addend: 0x0, symName: __ZNSt3__117__compressed_pairIPNS_10__function6__funcIZN15ChessBoardPrintC1ER10ChessBoardEUlRKNS4_5PieceERKNS_12basic_stringIcNS_11char_traitsIcEENS_9allocatorIcEEEESG_E0_NSC_ISH_EEFvS8_SG_SG_EEENS_22__allocator_destructorINSC_ISK_EEEEE5firstB7v160006Ev, symObjAddr: 0xDC04, symBinAddr: 0x10001014C, symSize: 0x24 }
  - { offsetInCU: 0x26B7B, offset: 0x26B7B, size: 0x8, addend: 0x0, symName: __ZNSt3__122__compressed_pair_elemIPNS_10__function6__funcIZN15ChessBoardPrintC1ER10ChessBoardEUlRKNS4_5PieceERKNS_12basic_stringIcNS_11char_traitsIcEENS_9allocatorIcEEEESG_E0_NSC_ISH_EEFvS8_SG_SG_EEELi0ELb0EE5__getB7v160006Ev, symObjAddr: 0xDC28, symBinAddr: 0x100010170, symSize: 0x14 }
  - { offsetInCU: 0x26BA1, offset: 0x26BA1, size: 0x8, addend: 0x0, symName: __ZNSt3__110unique_ptrINS_10__function6__funcIZN15ChessBoardPrintC1ER10ChessBoardEUlRKNS4_5PieceERKNS_12basic_stringIcNS_11char_traitsIcEENS_9allocatorIcEEEESG_E0_NSC_ISH_EEFvS8_SG_SG_EEENS_22__allocator_destructorINSC_ISK_EEEEED2B7v160006Ev, symObjAddr: 0xDC3C, symBinAddr: 0x100010184, symSize: 0x30 }
  - { offsetInCU: 0x26BCB, offset: 0x26BCB, size: 0x8, addend: 0x0, symName: __ZNSt3__110unique_ptrINS_10__function6__funcIZN15ChessBoardPrintC1ER10ChessBoardEUlRKNS4_5PieceERKNS_12basic_stringIcNS_11char_traitsIcEENS_9allocatorIcEEEESG_E0_NSC_ISH_EEFvS8_SG_SG_EEENS_22__allocator_destructorINSC_ISK_EEEEE5resetB7v160006EPSK_, symObjAddr: 0xDC6C, symBinAddr: 0x1000101B4, symSize: 0x78 }
  - { offsetInCU: 0x26C0F, offset: 0x26C0F, size: 0x8, addend: 0x0, symName: __ZNSt3__117__compressed_pairIPNS_10__function6__funcIZN15ChessBoardPrintC1ER10ChessBoardEUlRKNS4_5PieceERKNS_12basic_stringIcNS_11char_traitsIcEENS_9allocatorIcEEEESG_E0_NSC_ISH_EEFvS8_SG_SG_EEENS_22__allocator_destructorINSC_ISK_EEEEE6secondB7v160006Ev, symObjAddr: 0xDCE4, symBinAddr: 0x10001022C, symSize: 0x28 }
  - { offsetInCU: 0x26C35, offset: 0x26C35, size: 0x8, addend: 0x0, symName: __ZNSt3__122__allocator_destructorINS_9allocatorINS_10__function6__funcIZN15ChessBoardPrintC1ER10ChessBoardEUlRKNS5_5PieceERKNS_12basic_stringIcNS_11char_traitsIcEENS1_IcEEEESG_E0_NS1_ISH_EEFvS9_SG_SG_EEEEEEclB7v160006EPSK_, symObjAddr: 0xDD0C, symBinAddr: 0x100010254, symSize: 0x34 }
  - { offsetInCU: 0x26C69, offset: 0x26C69, size: 0x8, addend: 0x0, symName: __ZNSt3__122__compressed_pair_elemINS_22__allocator_destructorINS_9allocatorINS_10__function6__funcIZN15ChessBoardPrintC1ER10ChessBoardEUlRKNS6_5PieceERKNS_12basic_stringIcNS_11char_traitsIcEENS2_IcEEEESH_E0_NS2_ISI_EEFvSA_SH_SH_EEEEEEELi1ELb0EE5__getB7v160006Ev, symObjAddr: 0xDD40, symBinAddr: 0x100010288, symSize: 0x14 }
  - { offsetInCU: 0x26C8F, offset: 0x26C8F, size: 0x8, addend: 0x0, symName: __ZNSt3__116allocator_traitsINS_9allocatorINS_10__function6__funcIZN15ChessBoardPrintC1ER10ChessBoardEUlRKNS5_5PieceERKNS_12basic_stringIcNS_11char_traitsIcEENS1_IcEEEESG_E0_NS1_ISH_EEFvS9_SG_SG_EEEEEE10deallocateB7v160006ERSL_PSK_m, symObjAddr: 0xDD54, symBinAddr: 0x10001029C, symSize: 0x34 }
  - { offsetInCU: 0x26CD1, offset: 0x26CD1, size: 0x8, addend: 0x0, symName: __ZNSt3__19allocatorINS_10__function6__funcIZN15ChessBoardPrintC1ER10ChessBoardEUlRKNS4_5PieceERKNS_12basic_stringIcNS_11char_traitsIcEENS0_IcEEEESF_E0_NS0_ISG_EEFvS8_SF_SF_EEEE10deallocateB7v160006EPSJ_m, symObjAddr: 0xDD88, symBinAddr: 0x1000102D0, symSize: 0x40 }
  - { offsetInCU: 0x26D13, offset: 0x26D13, size: 0x8, addend: 0x0, symName: __ZNSt3__110__function6__funcIZN15ChessBoardPrintC1ER10ChessBoardEUlRKNS3_5PieceERKNS_12basic_stringIcNS_11char_traitsIcEENS_9allocatorIcEEEESF_E0_NSB_ISG_EEFvS7_SF_SF_EEC1B7v160006ERKSG_RKSH_, symObjAddr: 0xDDC8, symBinAddr: 0x100010310, symSize: 0x3C }
  - { offsetInCU: 0x26D5B, offset: 0x26D5B, size: 0x8, addend: 0x0, symName: __ZNSt3__110__function6__funcIZN15ChessBoardPrintC1ER10ChessBoardEUlRKNS3_5PieceERKNS_12basic_stringIcNS_11char_traitsIcEENS_9allocatorIcEEEESF_E0_NSB_ISG_EEFvS7_SF_SF_EEC2B7v160006ERKSG_RKSH_, symObjAddr: 0xDE04, symBinAddr: 0x10001034C, symSize: 0x88 }
  - { offsetInCU: 0x26DA3, offset: 0x26DA3, size: 0x8, addend: 0x0, symName: __ZNSt3__110__function12__alloc_funcIZN15ChessBoardPrintC1ER10ChessBoardEUlRKNS3_5PieceERKNS_12basic_stringIcNS_11char_traitsIcEENS_9allocatorIcEEEESF_E0_NSB_ISG_EEFvS7_SF_SF_EEC1B7v160006ERKSG_RKSH_, symObjAddr: 0xDE8C, symBinAddr: 0x1000103D4, symSize: 0x3C }
  - { offsetInCU: 0x26DE9, offset: 0x26DE9, size: 0x8, addend: 0x0, symName: __ZNSt3__110__function12__alloc_funcIZN15ChessBoardPrintC1ER10ChessBoardEUlRKNS3_5PieceERKNS_12basic_stringIcNS_11char_traitsIcEENS_9allocatorIcEEEESF_E0_NSB_ISG_EEFvS7_SF_SF_EEC2B7v160006ERKSG_RKSH_, symObjAddr: 0xDEC8, symBinAddr: 0x100010410, symSize: 0x5C }
  - { offsetInCU: 0x26E2F, offset: 0x26E2F, size: 0x8, addend: 0x0, symName: __ZNSt3__117__compressed_pairIZN15ChessBoardPrintC1ER10ChessBoardEUlRKNS2_5PieceERKNS_12basic_stringIcNS_11char_traitsIcEENS_9allocatorIcEEEESE_E0_NSA_ISF_EEEC1B7v160006IJRKSF_EJRKSG_EEENS_21piecewise_construct_tENS_5tupleIJDpT_EEENSO_IJDpT0_EEE, symObjAddr: 0xDF50, symBinAddr: 0x100010498, symSize: 0x3C }
  - { offsetInCU: 0x26E99, offset: 0x26E99, size: 0x8, addend: 0x0, symName: __ZNSt3__15tupleIJRKNS_9allocatorIZN15ChessBoardPrintC1ER10ChessBoardEUlRKNS3_5PieceERKNS_12basic_stringIcNS_11char_traitsIcEENS1_IcEEEESE_E0_EEEEC1B7v160006INS_4_AndELi0EEESI_, symObjAddr: 0xDF8C, symBinAddr: 0x1000104D4, symSize: 0x34 }
  - { offsetInCU: 0x26EE1, offset: 0x26EE1, size: 0x8, addend: 0x0, symName: __ZNSt3__15tupleIJRKNS_9allocatorIZN15ChessBoardPrintC1ER10ChessBoardEUlRKNS3_5PieceERKNS_12basic_stringIcNS_11char_traitsIcEENS1_IcEEEESE_E0_EEEEC2B7v160006INS_4_AndELi0EEESI_, symObjAddr: 0xDFC0, symBinAddr: 0x100010508, symSize: 0x34 }
  - { offsetInCU: 0x26F29, offset: 0x26F29, size: 0x8, addend: 0x0, symName: __ZNSt3__112__tuple_implINS_15__tuple_indicesIJLm0EEEEJRKNS_9allocatorIZN15ChessBoardPrintC1ER10ChessBoardEUlRKNS5_5PieceERKNS_12basic_stringIcNS_11char_traitsIcEENS3_IcEEEESG_E0_EEEEC1B7v160006IJLm0EEJSK_EJEJEJSK_EEENS1_IJXspT_EEEENS_13__tuple_typesIJDpT0_EEENS1_IJXspT1_EEEENSO_IJDpT2_EEEDpOT3_, symObjAddr: 0xDFF4, symBinAddr: 0x10001053C, symSize: 0x34 }
  - { offsetInCU: 0x26FBE, offset: 0x26FBE, size: 0x8, addend: 0x0, symName: __ZNSt3__112__tuple_implINS_15__tuple_indicesIJLm0EEEEJRKNS_9allocatorIZN15ChessBoardPrintC1ER10ChessBoardEUlRKNS5_5PieceERKNS_12basic_stringIcNS_11char_traitsIcEENS3_IcEEEESG_E0_EEEEC2B7v160006IJLm0EEJSK_EJEJEJSK_EEENS1_IJXspT_EEEENS_13__tuple_typesIJDpT0_EEENS1_IJXspT1_EEEENSO_IJDpT2_EEEDpOT3_, symObjAddr: 0xE028, symBinAddr: 0x100010570, symSize: 0x34 }
  - { offsetInCU: 0x27053, offset: 0x27053, size: 0x8, addend: 0x0, symName: __ZNSt3__112__tuple_leafILm0ERKNS_9allocatorIZN15ChessBoardPrintC1ER10ChessBoardEUlRKNS3_5PieceERKNS_12basic_stringIcNS_11char_traitsIcEENS1_IcEEEESE_E0_EELb0EEC2B7v160006ISI_vEEOT_, symObjAddr: 0xE05C, symBinAddr: 0x1000105A4, symSize: 0x20 }
  - { offsetInCU: 0x27096, offset: 0x27096, size: 0x8, addend: 0x0, symName: __ZNSt3__117__compressed_pairIZN15ChessBoardPrintC1ER10ChessBoardEUlRKNS2_5PieceERKNS_12basic_stringIcNS_11char_traitsIcEENS_9allocatorIcEEEESE_E0_NSA_ISF_EEEC2B7v160006IJRKSF_EJRKSG_EEENS_21piecewise_construct_tENS_5tupleIJDpT_EEENSO_IJDpT0_EEE, symObjAddr: 0xE07C, symBinAddr: 0x1000105C4, symSize: 0x54 }
  - { offsetInCU: 0x27100, offset: 0x27100, size: 0x8, addend: 0x0, symName: __ZNSt3__122__compressed_pair_elemINS_9allocatorIZN15ChessBoardPrintC1ER10ChessBoardEUlRKNS3_5PieceERKNS_12basic_stringIcNS_11char_traitsIcEENS1_IcEEEESE_E0_EELi1ELb1EEC2B7v160006IJRKSG_EJLm0EEEENS_21piecewise_construct_tENS_5tupleIJDpT_EEENS_15__tuple_indicesIJXspT0_EEEE, symObjAddr: 0xE0D0, symBinAddr: 0x100010618, symSize: 0x38 }
  - { offsetInCU: 0x27163, offset: 0x27163, size: 0x8, addend: 0x0, symName: __ZNSt3__112__tuple_leafILm0ERKNS_9allocatorIZN15ChessBoardPrintC1ER10ChessBoardEUlRKNS3_5PieceERKNS_12basic_stringIcNS_11char_traitsIcEENS1_IcEEEESE_E0_EELb0EE3getB7v160006Ev, symObjAddr: 0xE12C, symBinAddr: 0x100010674, symSize: 0x18 }
  - { offsetInCU: 0x27189, offset: 0x27189, size: 0x8, addend: 0x0, symName: __ZNSt3__110__function12__alloc_funcIZN15ChessBoardPrintC1ER10ChessBoardEUlRKNS3_5PieceERKNS_12basic_stringIcNS_11char_traitsIcEENS_9allocatorIcEEEESF_E0_NSB_ISG_EEFvS7_SF_SF_EE7destroyB7v160006Ev, symObjAddr: 0xE144, symBinAddr: 0x10001068C, symSize: 0x10 }
  - { offsetInCU: 0x271AF, offset: 0x271AF, size: 0x8, addend: 0x0, symName: __ZNSt3__110__function12__alloc_funcIZN15ChessBoardPrintC1ER10ChessBoardEUlRKNS3_5PieceERKNS_12basic_stringIcNS_11char_traitsIcEENS_9allocatorIcEEEESF_E0_NSB_ISG_EEFvS7_SF_SF_EEclB7v160006ES7_SF_SF_, symObjAddr: 0xE154, symBinAddr: 0x10001069C, symSize: 0x40 }
  - { offsetInCU: 0x271FF, offset: 0x271FF, size: 0x8, addend: 0x0, symName: __ZNSt3__128__invoke_void_return_wrapperIvLb1EE6__callIJRZN15ChessBoardPrintC1ER10ChessBoardEUlRKNS4_5PieceERKNS_12basic_stringIcNS_11char_traitsIcEENS_9allocatorIcEEEESG_E0_S8_SG_SG_EEEvDpOT_, symObjAddr: 0xE194, symBinAddr: 0x1000106DC, symSize: 0x3C }
  - { offsetInCU: 0x2726A, offset: 0x2726A, size: 0x8, addend: 0x0, symName: __ZNSt3__117__compressed_pairIZN15ChessBoardPrintC1ER10ChessBoardEUlRKNS2_5PieceERKNS_12basic_stringIcNS_11char_traitsIcEENS_9allocatorIcEEEESE_E0_NSA_ISF_EEE5firstB7v160006Ev, symObjAddr: 0xE1D0, symBinAddr: 0x100010718, symSize: 0x24 }
  - { offsetInCU: 0x27295, offset: 0x27295, size: 0x8, addend: 0x0, symName: __ZZN15ChessBoardPrintC1ER10ChessBoardENKUlRKNS0_5PieceERKNSt3__112basic_stringIcNS5_11char_traitsIcEENS5_9allocatorIcEEEESD_E0_clES4_SD_SD_, symObjAddr: 0xE230, symBinAddr: 0x100010778, symSize: 0x100 }
  - { offsetInCU: 0x272E9, offset: 0x272E9, size: 0x8, addend: 0x0, symName: __ZNSt3__122__compressed_pair_elemIZN15ChessBoardPrintC1ER10ChessBoardEUlRKNS2_5PieceERKNS_12basic_stringIcNS_11char_traitsIcEENS_9allocatorIcEEEESE_E0_Li0ELb1EE5__getB7v160006Ev, symObjAddr: 0xE330, symBinAddr: 0x100010878, symSize: 0x14 }
  - { offsetInCU: 0x2730F, offset: 0x2730F, size: 0x8, addend: 0x0, symName: __ZNSt3__18functionIFvRKNS_12basic_stringIcNS_11char_traitsIcEENS_9allocatorIcEEEEEEC1IZN15ChessBoardPrintC1ER10ChessBoardEUlS8_E_vEET_, symObjAddr: 0xE344, symBinAddr: 0x10001088C, symSize: 0x2C }
  - { offsetInCU: 0x27354, offset: 0x27354, size: 0x8, addend: 0x0, symName: __ZNSt3__18functionIFvRKNS_12basic_stringIcNS_11char_traitsIcEENS_9allocatorIcEEEEEE4swapERSA_, symObjAddr: 0xE370, symBinAddr: 0x1000108B8, symSize: 0x2C }
  - { offsetInCU: 0x2738B, offset: 0x2738B, size: 0x8, addend: 0x0, symName: __ZNSt3__18functionIFvRKNS_12basic_stringIcNS_11char_traitsIcEENS_9allocatorIcEEEEEEC2IZN15ChessBoardPrintC1ER10ChessBoardEUlS8_E_vEET_, symObjAddr: 0xE39C, symBinAddr: 0x1000108E4, symSize: 0x30 }
  - { offsetInCU: 0x273D0, offset: 0x273D0, size: 0x8, addend: 0x0, symName: __ZNSt3__110__function12__value_funcIFvRKNS_12basic_stringIcNS_11char_traitsIcEENS_9allocatorIcEEEEEEC1B7v160006IZN15ChessBoardPrintC1ER10ChessBoardEUlS9_E_vEEOT_, symObjAddr: 0xE3CC, symBinAddr: 0x100010914, symSize: 0x50 }
  - { offsetInCU: 0x27413, offset: 0x27413, size: 0x8, addend: 0x0, symName: __ZNSt3__19allocatorIZN15ChessBoardPrintC1ER10ChessBoardEUlRKNS_12basic_stringIcNS_11char_traitsIcEENS0_IcEEEEE_EC1B7v160006Ev, symObjAddr: 0xE41C, symBinAddr: 0x100010964, symSize: 0x2C }
  - { offsetInCU: 0x2743D, offset: 0x2743D, size: 0x8, addend: 0x0, symName: __ZNSt3__110__function12__value_funcIFvRKNS_12basic_stringIcNS_11char_traitsIcEENS_9allocatorIcEEEEEEC1B7v160006IZN15ChessBoardPrintC1ER10ChessBoardEUlS9_E_NS5_ISG_EEEEOT_RKT0_, symObjAddr: 0xE448, symBinAddr: 0x100010990, symSize: 0x3C }
  - { offsetInCU: 0x27497, offset: 0x27497, size: 0x8, addend: 0x0, symName: __ZNSt3__19allocatorIZN15ChessBoardPrintC1ER10ChessBoardEUlRKNS_12basic_stringIcNS_11char_traitsIcEENS0_IcEEEEE_EC2B7v160006Ev, symObjAddr: 0xE484, symBinAddr: 0x1000109CC, symSize: 0x2C }
  - { offsetInCU: 0x274C1, offset: 0x274C1, size: 0x8, addend: 0x0, symName: __ZNSt3__116__non_trivial_ifILb1ENS_9allocatorIZN15ChessBoardPrintC1ER10ChessBoardEUlRKNS_12basic_stringIcNS_11char_traitsIcEENS1_IcEEEEE_EEEC2B7v160006Ev, symObjAddr: 0xE4B0, symBinAddr: 0x1000109F8, symSize: 0x14 }
  - { offsetInCU: 0x274EB, offset: 0x274EB, size: 0x8, addend: 0x0, symName: __ZNSt3__110__function12__value_funcIFvRKNS_12basic_stringIcNS_11char_traitsIcEENS_9allocatorIcEEEEEEC2B7v160006IZN15ChessBoardPrintC1ER10ChessBoardEUlS9_E_NS5_ISG_EEEEOT_RKT0_, symObjAddr: 0xE4C4, symBinAddr: 0x100010A0C, symSize: 0x94 }
  - { offsetInCU: 0x27592, offset: 0x27592, size: 0x8, addend: 0x0, symName: __ZNSt3__19allocatorINS_10__function6__funcIZN15ChessBoardPrintC1ER10ChessBoardEUlRKNS_12basic_stringIcNS_11char_traitsIcEENS0_IcEEEEE_NS0_ISD_EEFvSC_EEEEC1B7v160006ISD_EERKNS0_IT_EE, symObjAddr: 0xE570, symBinAddr: 0x100010AB8, symSize: 0x34 }
  - { offsetInCU: 0x275D4, offset: 0x275D4, size: 0x8, addend: 0x0, symName: __ZNSt3__19allocatorIZN15ChessBoardPrintC1ER10ChessBoardEUlRKNS_12basic_stringIcNS_11char_traitsIcEENS0_IcEEEEE_EC1B7v160006INS_10__function6__funcISB_SC_FvSA_EEEEERKNS0_IT_EE, symObjAddr: 0xE5A4, symBinAddr: 0x100010AEC, symSize: 0x34 }
  - { offsetInCU: 0x27611, offset: 0x27611, size: 0x8, addend: 0x0, symName: __ZNSt3__110__function6__funcIZN15ChessBoardPrintC1ER10ChessBoardEUlRKNS_12basic_stringIcNS_11char_traitsIcEENS_9allocatorIcEEEEE_NS8_ISD_EEFvSC_EEC1B7v160006EOSD_OSE_, symObjAddr: 0xE5D8, symBinAddr: 0x100010B20, symSize: 0x3C }
  - { offsetInCU: 0x27659, offset: 0x27659, size: 0x8, addend: 0x0, symName: __ZNSt3__19allocatorINS_10__function6__funcIZN15ChessBoardPrintC1ER10ChessBoardEUlRKNS_12basic_stringIcNS_11char_traitsIcEENS0_IcEEEEE_NS0_ISD_EEFvSC_EEEEC2B7v160006ISD_EERKNS0_IT_EE, symObjAddr: 0xE614, symBinAddr: 0x100010B5C, symSize: 0x30 }
  - { offsetInCU: 0x27696, offset: 0x27696, size: 0x8, addend: 0x0, symName: __ZNSt3__116__non_trivial_ifILb1ENS_9allocatorINS_10__function6__funcIZN15ChessBoardPrintC1ER10ChessBoardEUlRKNS_12basic_stringIcNS_11char_traitsIcEENS1_IcEEEEE_NS1_ISE_EEFvSD_EEEEEEC2B7v160006Ev, symObjAddr: 0xE644, symBinAddr: 0x100010B8C, symSize: 0x14 }
  - { offsetInCU: 0x276C0, offset: 0x276C0, size: 0x8, addend: 0x0, symName: __ZNSt3__19allocatorIZN15ChessBoardPrintC1ER10ChessBoardEUlRKNS_12basic_stringIcNS_11char_traitsIcEENS0_IcEEEEE_EC2B7v160006INS_10__function6__funcISB_SC_FvSA_EEEEERKNS0_IT_EE, symObjAddr: 0xE658, symBinAddr: 0x100010BA0, symSize: 0x30 }
  - { offsetInCU: 0x276FD, offset: 0x276FD, size: 0x8, addend: 0x0, symName: __ZNSt3__110__function6__funcIZN15ChessBoardPrintC1ER10ChessBoardEUlRKNS_12basic_stringIcNS_11char_traitsIcEENS_9allocatorIcEEEEE_NS8_ISD_EEFvSC_EEC2B7v160006EOSD_OSE_, symObjAddr: 0xE688, symBinAddr: 0x100010BD0, symSize: 0x88 }
  - { offsetInCU: 0x27745, offset: 0x27745, size: 0x8, addend: 0x0, symName: __ZNSt3__110__function6__baseIFvRKNS_12basic_stringIcNS_11char_traitsIcEENS_9allocatorIcEEEEEEC2B7v160006Ev, symObjAddr: 0xE710, symBinAddr: 0x100010C58, symSize: 0x24 }
  - { offsetInCU: 0x2776F, offset: 0x2776F, size: 0x8, addend: 0x0, symName: __ZNSt3__110__function12__alloc_funcIZN15ChessBoardPrintC1ER10ChessBoardEUlRKNS_12basic_stringIcNS_11char_traitsIcEENS_9allocatorIcEEEEE_NS8_ISD_EEFvSC_EEC1B7v160006EOSD_OSE_, symObjAddr: 0xE734, symBinAddr: 0x100010C7C, symSize: 0x3C }
  - { offsetInCU: 0x277B5, offset: 0x277B5, size: 0x8, addend: 0x0, symName: __ZNSt3__110__function6__baseIFvRKNS_12basic_stringIcNS_11char_traitsIcEENS_9allocatorIcEEEEEED2Ev, symObjAddr: 0xE770, symBinAddr: 0x100010CB8, symSize: 0x14 }
  - { offsetInCU: 0x277DF, offset: 0x277DF, size: 0x8, addend: 0x0, symName: __ZNSt3__110__function6__funcIZN15ChessBoardPrintC1ER10ChessBoardEUlRKNS_12basic_stringIcNS_11char_traitsIcEENS_9allocatorIcEEEEE_NS8_ISD_EEFvSC_EED1Ev, symObjAddr: 0xE784, symBinAddr: 0x100010CCC, symSize: 0x2C }
  - { offsetInCU: 0x2780C, offset: 0x2780C, size: 0x8, addend: 0x0, symName: __ZNSt3__110__function6__funcIZN15ChessBoardPrintC1ER10ChessBoardEUlRKNS_12basic_stringIcNS_11char_traitsIcEENS_9allocatorIcEEEEE_NS8_ISD_EEFvSC_EED0Ev, symObjAddr: 0xE7B0, symBinAddr: 0x100010CF8, symSize: 0x30 }
  - { offsetInCU: 0x27839, offset: 0x27839, size: 0x8, addend: 0x0, symName: __ZNKSt3__110__function6__funcIZN15ChessBoardPrintC1ER10ChessBoardEUlRKNS_12basic_stringIcNS_11char_traitsIcEENS_9allocatorIcEEEEE_NS8_ISD_EEFvSC_EE7__cloneEv, symObjAddr: 0xE7E0, symBinAddr: 0x100010D28, symSize: 0xFC }
  - { offsetInCU: 0x2788B, offset: 0x2788B, size: 0x8, addend: 0x0, symName: __ZNKSt3__110__function6__funcIZN15ChessBoardPrintC1ER10ChessBoardEUlRKNS_12basic_stringIcNS_11char_traitsIcEENS_9allocatorIcEEEEE_NS8_ISD_EEFvSC_EE7__cloneEPNS0_6__baseISF_EE, symObjAddr: 0xE8DC, symBinAddr: 0x100010E24, symSize: 0x58 }
  - { offsetInCU: 0x278C2, offset: 0x278C2, size: 0x8, addend: 0x0, symName: __ZNSt3__110__function6__funcIZN15ChessBoardPrintC1ER10ChessBoardEUlRKNS_12basic_stringIcNS_11char_traitsIcEENS_9allocatorIcEEEEE_NS8_ISD_EEFvSC_EE7destroyEv, symObjAddr: 0xE934, symBinAddr: 0x100010E7C, symSize: 0x28 }
  - { offsetInCU: 0x278EA, offset: 0x278EA, size: 0x8, addend: 0x0, symName: __ZNSt3__110__function6__funcIZN15ChessBoardPrintC1ER10ChessBoardEUlRKNS_12basic_stringIcNS_11char_traitsIcEENS_9allocatorIcEEEEE_NS8_ISD_EEFvSC_EE18destroy_deallocateEv, symObjAddr: 0xE95C, symBinAddr: 0x100010EA4, symSize: 0x58 }
  - { offsetInCU: 0x2792D, offset: 0x2792D, size: 0x8, addend: 0x0, symName: __ZNSt3__110__function6__funcIZN15ChessBoardPrintC1ER10ChessBoardEUlRKNS_12basic_stringIcNS_11char_traitsIcEENS_9allocatorIcEEEEE_NS8_ISD_EEFvSC_EEclESC_, symObjAddr: 0xE9B4, symBinAddr: 0x100010EFC, symSize: 0x30 }
  - { offsetInCU: 0x27964, offset: 0x27964, size: 0x8, addend: 0x0, symName: __ZNKSt3__110__function6__funcIZN15ChessBoardPrintC1ER10ChessBoardEUlRKNS_12basic_stringIcNS_11char_traitsIcEENS_9allocatorIcEEEEE_NS8_ISD_EEFvSC_EE6targetERKSt9type_info, symObjAddr: 0xE9E4, symBinAddr: 0x100010F2C, symSize: 0x60 }
  - { offsetInCU: 0x2799B, offset: 0x2799B, size: 0x8, addend: 0x0, symName: __ZNKSt3__110__function6__funcIZN15ChessBoardPrintC1ER10ChessBoardEUlRKNS_12basic_stringIcNS_11char_traitsIcEENS_9allocatorIcEEEEE_NS8_ISD_EEFvSC_EE11target_typeEv, symObjAddr: 0xEA44, symBinAddr: 0x100010F8C, symSize: 0x18 }
  - { offsetInCU: 0x279C3, offset: 0x279C3, size: 0x8, addend: 0x0, symName: __ZNSt3__110__function6__baseIFvRKNS_12basic_stringIcNS_11char_traitsIcEENS_9allocatorIcEEEEEED1Ev, symObjAddr: 0xEA5C, symBinAddr: 0x100010FA4, symSize: 0x14 }
  - { offsetInCU: 0x279ED, offset: 0x279ED, size: 0x8, addend: 0x0, symName: __ZNSt3__110__function6__baseIFvRKNS_12basic_stringIcNS_11char_traitsIcEENS_9allocatorIcEEEEEED0Ev, symObjAddr: 0xEA70, symBinAddr: 0x100010FB8, symSize: 0xC }
  - { offsetInCU: 0x27A17, offset: 0x27A17, size: 0x8, addend: 0x0, symName: __ZNSt3__110__function12__alloc_funcIZN15ChessBoardPrintC1ER10ChessBoardEUlRKNS_12basic_stringIcNS_11char_traitsIcEENS_9allocatorIcEEEEE_NS8_ISD_EEFvSC_EEC2B7v160006EOSD_OSE_, symObjAddr: 0xEA7C, symBinAddr: 0x100010FC4, symSize: 0x5C }
  - { offsetInCU: 0x27A5D, offset: 0x27A5D, size: 0x8, addend: 0x0, symName: __ZNSt3__117__compressed_pairIZN15ChessBoardPrintC1ER10ChessBoardEUlRKNS_12basic_stringIcNS_11char_traitsIcEENS_9allocatorIcEEEEE_NS7_ISC_EEEC1B7v160006IJOSC_EJOSD_EEENS_21piecewise_construct_tENS_5tupleIJDpT_EEENSJ_IJDpT0_EEE, symObjAddr: 0xEB30, symBinAddr: 0x100011078, symSize: 0x3C }
  - { offsetInCU: 0x27AC7, offset: 0x27AC7, size: 0x8, addend: 0x0, symName: __ZNSt3__15tupleIJOZN15ChessBoardPrintC1ER10ChessBoardEUlRKNS_12basic_stringIcNS_11char_traitsIcEENS_9allocatorIcEEEEE_EEC1B7v160006IJSC_ELi0EEEDpOT_, symObjAddr: 0xEB6C, symBinAddr: 0x1000110B4, symSize: 0x34 }
  - { offsetInCU: 0x27B11, offset: 0x27B11, size: 0x8, addend: 0x0, symName: __ZNSt3__15tupleIJOZN15ChessBoardPrintC1ER10ChessBoardEUlRKNS_12basic_stringIcNS_11char_traitsIcEENS_9allocatorIcEEEEE_EEC2B7v160006IJSC_ELi0EEEDpOT_, symObjAddr: 0xEBA0, symBinAddr: 0x1000110E8, symSize: 0x34 }
  - { offsetInCU: 0x27B5B, offset: 0x27B5B, size: 0x8, addend: 0x0, symName: __ZNSt3__112__tuple_implINS_15__tuple_indicesIJLm0EEEEJOZN15ChessBoardPrintC1ER10ChessBoardEUlRKNS_12basic_stringIcNS_11char_traitsIcEENS_9allocatorIcEEEEE_EEC1B7v160006IJLm0EEJSF_EJEJEJSE_EEENS1_IJXspT_EEEENS_13__tuple_typesIJDpT0_EEENS1_IJXspT1_EEEENSJ_IJDpT2_EEEDpOT3_, symObjAddr: 0xEBD4, symBinAddr: 0x10001111C, symSize: 0x34 }
  - { offsetInCU: 0x27BF0, offset: 0x27BF0, size: 0x8, addend: 0x0, symName: __ZNSt3__112__tuple_implINS_15__tuple_indicesIJLm0EEEEJOZN15ChessBoardPrintC1ER10ChessBoardEUlRKNS_12basic_stringIcNS_11char_traitsIcEENS_9allocatorIcEEEEE_EEC2B7v160006IJLm0EEJSF_EJEJEJSE_EEENS1_IJXspT_EEEENS_13__tuple_typesIJDpT0_EEENS1_IJXspT1_EEEENSJ_IJDpT2_EEEDpOT3_, symObjAddr: 0xEC08, symBinAddr: 0x100011150, symSize: 0x34 }
  - { offsetInCU: 0x27C85, offset: 0x27C85, size: 0x8, addend: 0x0, symName: __ZNSt3__112__tuple_leafILm0EOZN15ChessBoardPrintC1ER10ChessBoardEUlRKNS_12basic_stringIcNS_11char_traitsIcEENS_9allocatorIcEEEEE_Lb0EEC2B7v160006ISC_vEEOT_, symObjAddr: 0xEC3C, symBinAddr: 0x100011184, symSize: 0x20 }
  - { offsetInCU: 0x27CC8, offset: 0x27CC8, size: 0x8, addend: 0x0, symName: __ZNSt3__15tupleIJONS_9allocatorIZN15ChessBoardPrintC1ER10ChessBoardEUlRKNS_12basic_stringIcNS_11char_traitsIcEENS1_IcEEEEE_EEEEC1B7v160006IJSD_ELi0EEEDpOT_, symObjAddr: 0xEC5C, symBinAddr: 0x1000111A4, symSize: 0x34 }
  - { offsetInCU: 0x27D12, offset: 0x27D12, size: 0x8, addend: 0x0, symName: __ZNSt3__15tupleIJONS_9allocatorIZN15ChessBoardPrintC1ER10ChessBoardEUlRKNS_12basic_stringIcNS_11char_traitsIcEENS1_IcEEEEE_EEEEC2B7v160006IJSD_ELi0EEEDpOT_, symObjAddr: 0xEC90, symBinAddr: 0x1000111D8, symSize: 0x34 }
  - { offsetInCU: 0x27D5C, offset: 0x27D5C, size: 0x8, addend: 0x0, symName: __ZNSt3__112__tuple_implINS_15__tuple_indicesIJLm0EEEEJONS_9allocatorIZN15ChessBoardPrintC1ER10ChessBoardEUlRKNS_12basic_stringIcNS_11char_traitsIcEENS3_IcEEEEE_EEEEC1B7v160006IJLm0EEJSG_EJEJEJSF_EEENS1_IJXspT_EEEENS_13__tuple_typesIJDpT0_EEENS1_IJXspT1_EEEENSK_IJDpT2_EEEDpOT3_, symObjAddr: 0xECC4, symBinAddr: 0x10001120C, symSize: 0x34 }
  - { offsetInCU: 0x27DF1, offset: 0x27DF1, size: 0x8, addend: 0x0, symName: __ZNSt3__112__tuple_implINS_15__tuple_indicesIJLm0EEEEJONS_9allocatorIZN15ChessBoardPrintC1ER10ChessBoardEUlRKNS_12basic_stringIcNS_11char_traitsIcEENS3_IcEEEEE_EEEEC2B7v160006IJLm0EEJSG_EJEJEJSF_EEENS1_IJXspT_EEEENS_13__tuple_typesIJDpT0_EEENS1_IJXspT1_EEEENSK_IJDpT2_EEEDpOT3_, symObjAddr: 0xECF8, symBinAddr: 0x100011240, symSize: 0x34 }
  - { offsetInCU: 0x27E86, offset: 0x27E86, size: 0x8, addend: 0x0, symName: __ZNSt3__112__tuple_leafILm0EONS_9allocatorIZN15ChessBoardPrintC1ER10ChessBoardEUlRKNS_12basic_stringIcNS_11char_traitsIcEENS1_IcEEEEE_EELb0EEC2B7v160006ISD_vEEOT_, symObjAddr: 0xED2C, symBinAddr: 0x100011274, symSize: 0x20 }
  - { offsetInCU: 0x27EC9, offset: 0x27EC9, size: 0x8, addend: 0x0, symName: __ZNSt3__117__compressed_pairIZN15ChessBoardPrintC1ER10ChessBoardEUlRKNS_12basic_stringIcNS_11char_traitsIcEENS_9allocatorIcEEEEE_NS7_ISC_EEEC2B7v160006IJOSC_EJOSD_EEENS_21piecewise_construct_tENS_5tupleIJDpT_EEENSJ_IJDpT0_EEE, symObjAddr: 0xED4C, symBinAddr: 0x100011294, symSize: 0x54 }
  - { offsetInCU: 0x27F33, offset: 0x27F33, size: 0x8, addend: 0x0, symName: __ZNSt3__122__compressed_pair_elemIZN15ChessBoardPrintC1ER10ChessBoardEUlRKNS_12basic_stringIcNS_11char_traitsIcEENS_9allocatorIcEEEEE_Li0ELb1EEC2B7v160006IJOSC_EJLm0EEEENS_21piecewise_construct_tENS_5tupleIJDpT_EEENS_15__tuple_indicesIJXspT0_EEEE, symObjAddr: 0xEDA0, symBinAddr: 0x1000112E8, symSize: 0x38 }
  - { offsetInCU: 0x27F96, offset: 0x27F96, size: 0x8, addend: 0x0, symName: __ZNSt3__122__compressed_pair_elemINS_9allocatorIZN15ChessBoardPrintC1ER10ChessBoardEUlRKNS_12basic_stringIcNS_11char_traitsIcEENS1_IcEEEEE_EELi1ELb1EEC2B7v160006IJOSD_EJLm0EEEENS_21piecewise_construct_tENS_5tupleIJDpT_EEENS_15__tuple_indicesIJXspT0_EEEE, symObjAddr: 0xEDD8, symBinAddr: 0x100011320, symSize: 0x38 }
  - { offsetInCU: 0x27FF9, offset: 0x27FF9, size: 0x8, addend: 0x0, symName: __ZNSt3__112__tuple_leafILm0EOZN15ChessBoardPrintC1ER10ChessBoardEUlRKNS_12basic_stringIcNS_11char_traitsIcEENS_9allocatorIcEEEEE_Lb0EE3getB7v160006Ev, symObjAddr: 0xEE34, symBinAddr: 0x10001137C, symSize: 0x18 }
  - { offsetInCU: 0x2801F, offset: 0x2801F, size: 0x8, addend: 0x0, symName: __ZNSt3__112__tuple_leafILm0EONS_9allocatorIZN15ChessBoardPrintC1ER10ChessBoardEUlRKNS_12basic_stringIcNS_11char_traitsIcEENS1_IcEEEEE_EELb0EE3getB7v160006Ev, symObjAddr: 0xEE70, symBinAddr: 0x1000113B8, symSize: 0x18 }
  - { offsetInCU: 0x28045, offset: 0x28045, size: 0x8, addend: 0x0, symName: __ZNSt3__110__function6__funcIZN15ChessBoardPrintC1ER10ChessBoardEUlRKNS_12basic_stringIcNS_11char_traitsIcEENS_9allocatorIcEEEEE_NS8_ISD_EEFvSC_EED2Ev, symObjAddr: 0xEE88, symBinAddr: 0x1000113D0, symSize: 0x2C }
  - { offsetInCU: 0x28072, offset: 0x28072, size: 0x8, addend: 0x0, symName: __ZNKSt3__110__function12__alloc_funcIZN15ChessBoardPrintC1ER10ChessBoardEUlRKNS_12basic_stringIcNS_11char_traitsIcEENS_9allocatorIcEEEEE_NS8_ISD_EEFvSC_EE15__get_allocatorB7v160006Ev, symObjAddr: 0xEEB4, symBinAddr: 0x1000113FC, symSize: 0x24 }
  - { offsetInCU: 0x28098, offset: 0x28098, size: 0x8, addend: 0x0, symName: __ZNSt3__19allocatorINS_10__function6__funcIZN15ChessBoardPrintC1ER10ChessBoardEUlRKNS_12basic_stringIcNS_11char_traitsIcEENS0_IcEEEEE_NS0_ISD_EEFvSC_EEEE8allocateB7v160006Em, symObjAddr: 0xEED8, symBinAddr: 0x100011420, symSize: 0x58 }
  - { offsetInCU: 0x280DB, offset: 0x280DB, size: 0x8, addend: 0x0, symName: __ZNSt3__122__allocator_destructorINS_9allocatorINS_10__function6__funcIZN15ChessBoardPrintC1ER10ChessBoardEUlRKNS_12basic_stringIcNS_11char_traitsIcEENS1_IcEEEEE_NS1_ISE_EEFvSD_EEEEEEC1B7v160006ERSI_m, symObjAddr: 0xEF30, symBinAddr: 0x100011478, symSize: 0x3C }
  - { offsetInCU: 0x281AF, offset: 0x281AF, size: 0x8, addend: 0x0, symName: __ZNSt3__110unique_ptrINS_10__function6__funcIZN15ChessBoardPrintC1ER10ChessBoardEUlRKNS_12basic_stringIcNS_11char_traitsIcEENS_9allocatorIcEEEEE_NS9_ISE_EEFvSD_EEENS_22__allocator_destructorINS9_ISH_EEEEEC1B7v160006ILb1EvEEPSH_NS_16__dependent_typeINS_27__unique_ptr_deleter_sfinaeISK_EEXT_EE20__good_rval_ref_typeE, symObjAddr: 0xEF6C, symBinAddr: 0x1000114B4, symSize: 0x3C }
  - { offsetInCU: 0x28200, offset: 0x28200, size: 0x8, addend: 0x0, symName: __ZNKSt3__110unique_ptrINS_10__function6__funcIZN15ChessBoardPrintC1ER10ChessBoardEUlRKNS_12basic_stringIcNS_11char_traitsIcEENS_9allocatorIcEEEEE_NS9_ISE_EEFvSD_EEENS_22__allocator_destructorINS9_ISH_EEEEE3getB7v160006Ev, symObjAddr: 0xEFA8, symBinAddr: 0x1000114F0, symSize: 0x28 }
  - { offsetInCU: 0x28226, offset: 0x28226, size: 0x8, addend: 0x0, symName: __ZNKSt3__110__function12__alloc_funcIZN15ChessBoardPrintC1ER10ChessBoardEUlRKNS_12basic_stringIcNS_11char_traitsIcEENS_9allocatorIcEEEEE_NS8_ISD_EEFvSC_EE8__targetB7v160006Ev, symObjAddr: 0xEFD0, symBinAddr: 0x100011518, symSize: 0x24 }
  - { offsetInCU: 0x2824C, offset: 0x2824C, size: 0x8, addend: 0x0, symName: __ZNSt3__110__function6__funcIZN15ChessBoardPrintC1ER10ChessBoardEUlRKNS_12basic_stringIcNS_11char_traitsIcEENS_9allocatorIcEEEEE_NS8_ISD_EEFvSC_EEC1B7v160006ERKSD_OSE_, symObjAddr: 0xEFF4, symBinAddr: 0x10001153C, symSize: 0x3C }
  - { offsetInCU: 0x28294, offset: 0x28294, size: 0x8, addend: 0x0, symName: __ZNSt3__110unique_ptrINS_10__function6__funcIZN15ChessBoardPrintC1ER10ChessBoardEUlRKNS_12basic_stringIcNS_11char_traitsIcEENS_9allocatorIcEEEEE_NS9_ISE_EEFvSD_EEENS_22__allocator_destructorINS9_ISH_EEEEE7releaseB7v160006Ev, symObjAddr: 0xF030, symBinAddr: 0x100011578, symSize: 0x44 }
  - { offsetInCU: 0x282C9, offset: 0x282C9, size: 0x8, addend: 0x0, symName: __ZNSt3__110unique_ptrINS_10__function6__funcIZN15ChessBoardPrintC1ER10ChessBoardEUlRKNS_12basic_stringIcNS_11char_traitsIcEENS_9allocatorIcEEEEE_NS9_ISE_EEFvSD_EEENS_22__allocator_destructorINS9_ISH_EEEEED1B7v160006Ev, symObjAddr: 0xF074, symBinAddr: 0x1000115BC, symSize: 0x2C }
  - { offsetInCU: 0x282F3, offset: 0x282F3, size: 0x8, addend: 0x0, symName: __ZNKSt3__117__compressed_pairIZN15ChessBoardPrintC1ER10ChessBoardEUlRKNS_12basic_stringIcNS_11char_traitsIcEENS_9allocatorIcEEEEE_NS7_ISC_EEE6secondB7v160006Ev, symObjAddr: 0xF0A0, symBinAddr: 0x1000115E8, symSize: 0x24 }
  - { offsetInCU: 0x28319, offset: 0x28319, size: 0x8, addend: 0x0, symName: __ZNKSt3__122__compressed_pair_elemINS_9allocatorIZN15ChessBoardPrintC1ER10ChessBoardEUlRKNS_12basic_stringIcNS_11char_traitsIcEENS1_IcEEEEE_EELi1ELb1EE5__getB7v160006Ev, symObjAddr: 0xF0C4, symBinAddr: 0x10001160C, symSize: 0x14 }
  - { offsetInCU: 0x28349, offset: 0x28349, size: 0x8, addend: 0x0, symName: __ZNSt3__116allocator_traitsINS_9allocatorINS_10__function6__funcIZN15ChessBoardPrintC1ER10ChessBoardEUlRKNS_12basic_stringIcNS_11char_traitsIcEENS1_IcEEEEE_NS1_ISE_EEFvSD_EEEEEE8max_sizeB7v160006ISI_vEEmRKSI_, symObjAddr: 0xF0D8, symBinAddr: 0x100011620, symSize: 0x24 }
  - { offsetInCU: 0x28377, offset: 0x28377, size: 0x8, addend: 0x0, symName: __ZNKSt3__19allocatorINS_10__function6__funcIZN15ChessBoardPrintC1ER10ChessBoardEUlRKNS_12basic_stringIcNS_11char_traitsIcEENS0_IcEEEEE_NS0_ISD_EEFvSC_EEEE8max_sizeB7v160006Ev, symObjAddr: 0xF0FC, symBinAddr: 0x100011644, symSize: 0x14 }
  - { offsetInCU: 0x2839D, offset: 0x2839D, size: 0x8, addend: 0x0, symName: __ZNSt3__122__allocator_destructorINS_9allocatorINS_10__function6__funcIZN15ChessBoardPrintC1ER10ChessBoardEUlRKNS_12basic_stringIcNS_11char_traitsIcEENS1_IcEEEEE_NS1_ISE_EEFvSD_EEEEEEC2B7v160006ERSI_m, symObjAddr: 0xF110, symBinAddr: 0x100011658, symSize: 0x2C }
  - { offsetInCU: 0x283E3, offset: 0x283E3, size: 0x8, addend: 0x0, symName: __ZNSt3__110unique_ptrINS_10__function6__funcIZN15ChessBoardPrintC1ER10ChessBoardEUlRKNS_12basic_stringIcNS_11char_traitsIcEENS_9allocatorIcEEEEE_NS9_ISE_EEFvSD_EEENS_22__allocator_destructorINS9_ISH_EEEEEC2B7v160006ILb1EvEEPSH_NS_16__dependent_typeINS_27__unique_ptr_deleter_sfinaeISK_EEXT_EE20__good_rval_ref_typeE, symObjAddr: 0xF13C, symBinAddr: 0x100011684, symSize: 0x48 }
  - { offsetInCU: 0x28434, offset: 0x28434, size: 0x8, addend: 0x0, symName: __ZNSt3__117__compressed_pairIPNS_10__function6__funcIZN15ChessBoardPrintC1ER10ChessBoardEUlRKNS_12basic_stringIcNS_11char_traitsIcEENS_9allocatorIcEEEEE_NS9_ISE_EEFvSD_EEENS_22__allocator_destructorINS9_ISH_EEEEEC1B7v160006IRSI_SL_EEOT_OT0_, symObjAddr: 0xF184, symBinAddr: 0x1000116CC, symSize: 0x3C }
  - { offsetInCU: 0x2848C, offset: 0x2848C, size: 0x8, addend: 0x0, symName: __ZNSt3__117__compressed_pairIPNS_10__function6__funcIZN15ChessBoardPrintC1ER10ChessBoardEUlRKNS_12basic_stringIcNS_11char_traitsIcEENS_9allocatorIcEEEEE_NS9_ISE_EEFvSD_EEENS_22__allocator_destructorINS9_ISH_EEEEEC2B7v160006IRSI_SL_EEOT_OT0_, symObjAddr: 0xF1C0, symBinAddr: 0x100011708, symSize: 0x48 }
  - { offsetInCU: 0x284E4, offset: 0x284E4, size: 0x8, addend: 0x0, symName: __ZNSt3__122__compressed_pair_elemIPNS_10__function6__funcIZN15ChessBoardPrintC1ER10ChessBoardEUlRKNS_12basic_stringIcNS_11char_traitsIcEENS_9allocatorIcEEEEE_NS9_ISE_EEFvSD_EEELi0ELb0EEC2B7v160006IRSI_vEEOT_, symObjAddr: 0xF208, symBinAddr: 0x100011750, symSize: 0x24 }
  - { offsetInCU: 0x28526, offset: 0x28526, size: 0x8, addend: 0x0, symName: __ZNSt3__122__compressed_pair_elemINS_22__allocator_destructorINS_9allocatorINS_10__function6__funcIZN15ChessBoardPrintC1ER10ChessBoardEUlRKNS_12basic_stringIcNS_11char_traitsIcEENS2_IcEEEEE_NS2_ISF_EEFvSE_EEEEEEELi1ELb0EEC2B7v160006ISK_vEEOT_, symObjAddr: 0xF22C, symBinAddr: 0x100011774, symSize: 0x24 }
  - { offsetInCU: 0x28568, offset: 0x28568, size: 0x8, addend: 0x0, symName: __ZNKSt3__117__compressed_pairIPNS_10__function6__funcIZN15ChessBoardPrintC1ER10ChessBoardEUlRKNS_12basic_stringIcNS_11char_traitsIcEENS_9allocatorIcEEEEE_NS9_ISE_EEFvSD_EEENS_22__allocator_destructorINS9_ISH_EEEEE5firstB7v160006Ev, symObjAddr: 0xF250, symBinAddr: 0x100011798, symSize: 0x24 }
  - { offsetInCU: 0x2858E, offset: 0x2858E, size: 0x8, addend: 0x0, symName: __ZNKSt3__122__compressed_pair_elemIPNS_10__function6__funcIZN15ChessBoardPrintC1ER10ChessBoardEUlRKNS_12basic_stringIcNS_11char_traitsIcEENS_9allocatorIcEEEEE_NS9_ISE_EEFvSD_EEELi0ELb0EE5__getB7v160006Ev, symObjAddr: 0xF274, symBinAddr: 0x1000117BC, symSize: 0x14 }
  - { offsetInCU: 0x285B4, offset: 0x285B4, size: 0x8, addend: 0x0, symName: __ZNKSt3__117__compressed_pairIZN15ChessBoardPrintC1ER10ChessBoardEUlRKNS_12basic_stringIcNS_11char_traitsIcEENS_9allocatorIcEEEEE_NS7_ISC_EEE5firstB7v160006Ev, symObjAddr: 0xF288, symBinAddr: 0x1000117D0, symSize: 0x24 }
  - { offsetInCU: 0x285DA, offset: 0x285DA, size: 0x8, addend: 0x0, symName: __ZNKSt3__122__compressed_pair_elemIZN15ChessBoardPrintC1ER10ChessBoardEUlRKNS_12basic_stringIcNS_11char_traitsIcEENS_9allocatorIcEEEEE_Li0ELb1EE5__getB7v160006Ev, symObjAddr: 0xF2AC, symBinAddr: 0x1000117F4, symSize: 0x14 }
  - { offsetInCU: 0x28600, offset: 0x28600, size: 0x8, addend: 0x0, symName: __ZNSt3__110__function6__funcIZN15ChessBoardPrintC1ER10ChessBoardEUlRKNS_12basic_stringIcNS_11char_traitsIcEENS_9allocatorIcEEEEE_NS8_ISD_EEFvSC_EEC2B7v160006ERKSD_OSE_, symObjAddr: 0xF2C0, symBinAddr: 0x100011808, symSize: 0x88 }
  - { offsetInCU: 0x28648, offset: 0x28648, size: 0x8, addend: 0x0, symName: __ZNSt3__110__function12__alloc_funcIZN15ChessBoardPrintC1ER10ChessBoardEUlRKNS_12basic_stringIcNS_11char_traitsIcEENS_9allocatorIcEEEEE_NS8_ISD_EEFvSC_EEC1B7v160006ERKSD_OSE_, symObjAddr: 0xF348, symBinAddr: 0x100011890, symSize: 0x3C }
  - { offsetInCU: 0x2868E, offset: 0x2868E, size: 0x8, addend: 0x0, symName: __ZNSt3__110__function12__alloc_funcIZN15ChessBoardPrintC1ER10ChessBoardEUlRKNS_12basic_stringIcNS_11char_traitsIcEENS_9allocatorIcEEEEE_NS8_ISD_EEFvSC_EEC2B7v160006ERKSD_OSE_, symObjAddr: 0xF384, symBinAddr: 0x1000118CC, symSize: 0x5C }
  - { offsetInCU: 0x286D4, offset: 0x286D4, size: 0x8, addend: 0x0, symName: __ZNSt3__117__compressed_pairIZN15ChessBoardPrintC1ER10ChessBoardEUlRKNS_12basic_stringIcNS_11char_traitsIcEENS_9allocatorIcEEEEE_NS7_ISC_EEEC1B7v160006IJRKSC_EJOSD_EEENS_21piecewise_construct_tENS_5tupleIJDpT_EEENSK_IJDpT0_EEE, symObjAddr: 0xF40C, symBinAddr: 0x100011954, symSize: 0x3C }
  - { offsetInCU: 0x2873E, offset: 0x2873E, size: 0x8, addend: 0x0, symName: __ZNSt3__15tupleIJRKZN15ChessBoardPrintC1ER10ChessBoardEUlRKNS_12basic_stringIcNS_11char_traitsIcEENS_9allocatorIcEEEEE_EEC1B7v160006INS_4_AndELi0EEESE_, symObjAddr: 0xF448, symBinAddr: 0x100011990, symSize: 0x34 }
  - { offsetInCU: 0x28786, offset: 0x28786, size: 0x8, addend: 0x0, symName: __ZNSt3__15tupleIJRKZN15ChessBoardPrintC1ER10ChessBoardEUlRKNS_12basic_stringIcNS_11char_traitsIcEENS_9allocatorIcEEEEE_EEC2B7v160006INS_4_AndELi0EEESE_, symObjAddr: 0xF47C, symBinAddr: 0x1000119C4, symSize: 0x34 }
  - { offsetInCU: 0x287CE, offset: 0x287CE, size: 0x8, addend: 0x0, symName: __ZNSt3__112__tuple_implINS_15__tuple_indicesIJLm0EEEEJRKZN15ChessBoardPrintC1ER10ChessBoardEUlRKNS_12basic_stringIcNS_11char_traitsIcEENS_9allocatorIcEEEEE_EEC1B7v160006IJLm0EEJSG_EJEJEJSG_EEENS1_IJXspT_EEEENS_13__tuple_typesIJDpT0_EEENS1_IJXspT1_EEEENSK_IJDpT2_EEEDpOT3_, symObjAddr: 0xF4B0, symBinAddr: 0x1000119F8, symSize: 0x34 }
  - { offsetInCU: 0x28863, offset: 0x28863, size: 0x8, addend: 0x0, symName: __ZNSt3__112__tuple_implINS_15__tuple_indicesIJLm0EEEEJRKZN15ChessBoardPrintC1ER10ChessBoardEUlRKNS_12basic_stringIcNS_11char_traitsIcEENS_9allocatorIcEEEEE_EEC2B7v160006IJLm0EEJSG_EJEJEJSG_EEENS1_IJXspT_EEEENS_13__tuple_typesIJDpT0_EEENS1_IJXspT1_EEEENSK_IJDpT2_EEEDpOT3_, symObjAddr: 0xF4E4, symBinAddr: 0x100011A2C, symSize: 0x34 }
  - { offsetInCU: 0x288F8, offset: 0x288F8, size: 0x8, addend: 0x0, symName: __ZNSt3__112__tuple_leafILm0ERKZN15ChessBoardPrintC1ER10ChessBoardEUlRKNS_12basic_stringIcNS_11char_traitsIcEENS_9allocatorIcEEEEE_Lb0EEC2B7v160006ISE_vEEOT_, symObjAddr: 0xF518, symBinAddr: 0x100011A60, symSize: 0x20 }
  - { offsetInCU: 0x2893B, offset: 0x2893B, size: 0x8, addend: 0x0, symName: __ZNSt3__117__compressed_pairIZN15ChessBoardPrintC1ER10ChessBoardEUlRKNS_12basic_stringIcNS_11char_traitsIcEENS_9allocatorIcEEEEE_NS7_ISC_EEEC2B7v160006IJRKSC_EJOSD_EEENS_21piecewise_construct_tENS_5tupleIJDpT_EEENSK_IJDpT0_EEE, symObjAddr: 0xF538, symBinAddr: 0x100011A80, symSize: 0x54 }
  - { offsetInCU: 0x289A5, offset: 0x289A5, size: 0x8, addend: 0x0, symName: __ZNSt3__122__compressed_pair_elemIZN15ChessBoardPrintC1ER10ChessBoardEUlRKNS_12basic_stringIcNS_11char_traitsIcEENS_9allocatorIcEEEEE_Li0ELb1EEC2B7v160006IJRKSC_EJLm0EEEENS_21piecewise_construct_tENS_5tupleIJDpT_EEENS_15__tuple_indicesIJXspT0_EEEE, symObjAddr: 0xF58C, symBinAddr: 0x100011AD4, symSize: 0x38 }
  - { offsetInCU: 0x28A08, offset: 0x28A08, size: 0x8, addend: 0x0, symName: __ZNSt3__112__tuple_leafILm0ERKZN15ChessBoardPrintC1ER10ChessBoardEUlRKNS_12basic_stringIcNS_11char_traitsIcEENS_9allocatorIcEEEEE_Lb0EE3getB7v160006Ev, symObjAddr: 0xF5E8, symBinAddr: 0x100011B30, symSize: 0x18 }
  - { offsetInCU: 0x28A2E, offset: 0x28A2E, size: 0x8, addend: 0x0, symName: __ZNSt3__117__compressed_pairIPNS_10__function6__funcIZN15ChessBoardPrintC1ER10ChessBoardEUlRKNS_12basic_stringIcNS_11char_traitsIcEENS_9allocatorIcEEEEE_NS9_ISE_EEFvSD_EEENS_22__allocator_destructorINS9_ISH_EEEEE5firstB7v160006Ev, symObjAddr: 0xF600, symBinAddr: 0x100011B48, symSize: 0x24 }
  - { offsetInCU: 0x28A54, offset: 0x28A54, size: 0x8, addend: 0x0, symName: __ZNSt3__122__compressed_pair_elemIPNS_10__function6__funcIZN15ChessBoardPrintC1ER10ChessBoardEUlRKNS_12basic_stringIcNS_11char_traitsIcEENS_9allocatorIcEEEEE_NS9_ISE_EEFvSD_EEELi0ELb0EE5__getB7v160006Ev, symObjAddr: 0xF624, symBinAddr: 0x100011B6C, symSize: 0x14 }
  - { offsetInCU: 0x28A7A, offset: 0x28A7A, size: 0x8, addend: 0x0, symName: __ZNSt3__110unique_ptrINS_10__function6__funcIZN15ChessBoardPrintC1ER10ChessBoardEUlRKNS_12basic_stringIcNS_11char_traitsIcEENS_9allocatorIcEEEEE_NS9_ISE_EEFvSD_EEENS_22__allocator_destructorINS9_ISH_EEEEED2B7v160006Ev, symObjAddr: 0xF638, symBinAddr: 0x100011B80, symSize: 0x30 }
  - { offsetInCU: 0x28AA4, offset: 0x28AA4, size: 0x8, addend: 0x0, symName: __ZNSt3__110unique_ptrINS_10__function6__funcIZN15ChessBoardPrintC1ER10ChessBoardEUlRKNS_12basic_stringIcNS_11char_traitsIcEENS_9allocatorIcEEEEE_NS9_ISE_EEFvSD_EEENS_22__allocator_destructorINS9_ISH_EEEEE5resetB7v160006EPSH_, symObjAddr: 0xF668, symBinAddr: 0x100011BB0, symSize: 0x78 }
  - { offsetInCU: 0x28AE8, offset: 0x28AE8, size: 0x8, addend: 0x0, symName: __ZNSt3__117__compressed_pairIPNS_10__function6__funcIZN15ChessBoardPrintC1ER10ChessBoardEUlRKNS_12basic_stringIcNS_11char_traitsIcEENS_9allocatorIcEEEEE_NS9_ISE_EEFvSD_EEENS_22__allocator_destructorINS9_ISH_EEEEE6secondB7v160006Ev, symObjAddr: 0xF6E0, symBinAddr: 0x100011C28, symSize: 0x28 }
  - { offsetInCU: 0x28B0E, offset: 0x28B0E, size: 0x8, addend: 0x0, symName: __ZNSt3__122__allocator_destructorINS_9allocatorINS_10__function6__funcIZN15ChessBoardPrintC1ER10ChessBoardEUlRKNS_12basic_stringIcNS_11char_traitsIcEENS1_IcEEEEE_NS1_ISE_EEFvSD_EEEEEEclB7v160006EPSH_, symObjAddr: 0xF708, symBinAddr: 0x100011C50, symSize: 0x34 }
  - { offsetInCU: 0x28B42, offset: 0x28B42, size: 0x8, addend: 0x0, symName: __ZNSt3__122__compressed_pair_elemINS_22__allocator_destructorINS_9allocatorINS_10__function6__funcIZN15ChessBoardPrintC1ER10ChessBoardEUlRKNS_12basic_stringIcNS_11char_traitsIcEENS2_IcEEEEE_NS2_ISF_EEFvSE_EEEEEEELi1ELb0EE5__getB7v160006Ev, symObjAddr: 0xF73C, symBinAddr: 0x100011C84, symSize: 0x14 }
  - { offsetInCU: 0x28B68, offset: 0x28B68, size: 0x8, addend: 0x0, symName: __ZNSt3__116allocator_traitsINS_9allocatorINS_10__function6__funcIZN15ChessBoardPrintC1ER10ChessBoardEUlRKNS_12basic_stringIcNS_11char_traitsIcEENS1_IcEEEEE_NS1_ISE_EEFvSD_EEEEEE10deallocateB7v160006ERSI_PSH_m, symObjAddr: 0xF750, symBinAddr: 0x100011C98, symSize: 0x34 }
  - { offsetInCU: 0x28BAA, offset: 0x28BAA, size: 0x8, addend: 0x0, symName: __ZNSt3__19allocatorINS_10__function6__funcIZN15ChessBoardPrintC1ER10ChessBoardEUlRKNS_12basic_stringIcNS_11char_traitsIcEENS0_IcEEEEE_NS0_ISD_EEFvSC_EEEE10deallocateB7v160006EPSG_m, symObjAddr: 0xF784, symBinAddr: 0x100011CCC, symSize: 0x40 }
  - { offsetInCU: 0x28BEC, offset: 0x28BEC, size: 0x8, addend: 0x0, symName: __ZNSt3__110__function6__funcIZN15ChessBoardPrintC1ER10ChessBoardEUlRKNS_12basic_stringIcNS_11char_traitsIcEENS_9allocatorIcEEEEE_NS8_ISD_EEFvSC_EEC1B7v160006ERKSD_RKSE_, symObjAddr: 0xF7C4, symBinAddr: 0x100011D0C, symSize: 0x3C }
  - { offsetInCU: 0x28C34, offset: 0x28C34, size: 0x8, addend: 0x0, symName: __ZNSt3__110__function6__funcIZN15ChessBoardPrintC1ER10ChessBoardEUlRKNS_12basic_stringIcNS_11char_traitsIcEENS_9allocatorIcEEEEE_NS8_ISD_EEFvSC_EEC2B7v160006ERKSD_RKSE_, symObjAddr: 0xF800, symBinAddr: 0x100011D48, symSize: 0x88 }
  - { offsetInCU: 0x28C7C, offset: 0x28C7C, size: 0x8, addend: 0x0, symName: __ZNSt3__110__function12__alloc_funcIZN15ChessBoardPrintC1ER10ChessBoardEUlRKNS_12basic_stringIcNS_11char_traitsIcEENS_9allocatorIcEEEEE_NS8_ISD_EEFvSC_EEC1B7v160006ERKSD_RKSE_, symObjAddr: 0xF888, symBinAddr: 0x100011DD0, symSize: 0x3C }
  - { offsetInCU: 0x28CC2, offset: 0x28CC2, size: 0x8, addend: 0x0, symName: __ZNSt3__110__function12__alloc_funcIZN15ChessBoardPrintC1ER10ChessBoardEUlRKNS_12basic_stringIcNS_11char_traitsIcEENS_9allocatorIcEEEEE_NS8_ISD_EEFvSC_EEC2B7v160006ERKSD_RKSE_, symObjAddr: 0xF8C4, symBinAddr: 0x100011E0C, symSize: 0x5C }
  - { offsetInCU: 0x28D08, offset: 0x28D08, size: 0x8, addend: 0x0, symName: __ZNSt3__117__compressed_pairIZN15ChessBoardPrintC1ER10ChessBoardEUlRKNS_12basic_stringIcNS_11char_traitsIcEENS_9allocatorIcEEEEE_NS7_ISC_EEEC1B7v160006IJRKSC_EJRKSD_EEENS_21piecewise_construct_tENS_5tupleIJDpT_EEENSL_IJDpT0_EEE, symObjAddr: 0xF94C, symBinAddr: 0x100011E94, symSize: 0x3C }
  - { offsetInCU: 0x28D72, offset: 0x28D72, size: 0x8, addend: 0x0, symName: __ZNSt3__15tupleIJRKNS_9allocatorIZN15ChessBoardPrintC1ER10ChessBoardEUlRKNS_12basic_stringIcNS_11char_traitsIcEENS1_IcEEEEE_EEEEC1B7v160006INS_4_AndELi0EEESF_, symObjAddr: 0xF988, symBinAddr: 0x100011ED0, symSize: 0x34 }
  - { offsetInCU: 0x28DBA, offset: 0x28DBA, size: 0x8, addend: 0x0, symName: __ZNSt3__15tupleIJRKNS_9allocatorIZN15ChessBoardPrintC1ER10ChessBoardEUlRKNS_12basic_stringIcNS_11char_traitsIcEENS1_IcEEEEE_EEEEC2B7v160006INS_4_AndELi0EEESF_, symObjAddr: 0xF9BC, symBinAddr: 0x100011F04, symSize: 0x34 }
  - { offsetInCU: 0x28E02, offset: 0x28E02, size: 0x8, addend: 0x0, symName: __ZNSt3__112__tuple_implINS_15__tuple_indicesIJLm0EEEEJRKNS_9allocatorIZN15ChessBoardPrintC1ER10ChessBoardEUlRKNS_12basic_stringIcNS_11char_traitsIcEENS3_IcEEEEE_EEEEC1B7v160006IJLm0EEJSH_EJEJEJSH_EEENS1_IJXspT_EEEENS_13__tuple_typesIJDpT0_EEENS1_IJXspT1_EEEENSL_IJDpT2_EEEDpOT3_, symObjAddr: 0xF9F0, symBinAddr: 0x100011F38, symSize: 0x34 }
  - { offsetInCU: 0x28E97, offset: 0x28E97, size: 0x8, addend: 0x0, symName: __ZNSt3__112__tuple_implINS_15__tuple_indicesIJLm0EEEEJRKNS_9allocatorIZN15ChessBoardPrintC1ER10ChessBoardEUlRKNS_12basic_stringIcNS_11char_traitsIcEENS3_IcEEEEE_EEEEC2B7v160006IJLm0EEJSH_EJEJEJSH_EEENS1_IJXspT_EEEENS_13__tuple_typesIJDpT0_EEENS1_IJXspT1_EEEENSL_IJDpT2_EEEDpOT3_, symObjAddr: 0xFA24, symBinAddr: 0x100011F6C, symSize: 0x34 }
  - { offsetInCU: 0x28F2C, offset: 0x28F2C, size: 0x8, addend: 0x0, symName: __ZNSt3__112__tuple_leafILm0ERKNS_9allocatorIZN15ChessBoardPrintC1ER10ChessBoardEUlRKNS_12basic_stringIcNS_11char_traitsIcEENS1_IcEEEEE_EELb0EEC2B7v160006ISF_vEEOT_, symObjAddr: 0xFA58, symBinAddr: 0x100011FA0, symSize: 0x20 }
  - { offsetInCU: 0x28F6F, offset: 0x28F6F, size: 0x8, addend: 0x0, symName: __ZNSt3__117__compressed_pairIZN15ChessBoardPrintC1ER10ChessBoardEUlRKNS_12basic_stringIcNS_11char_traitsIcEENS_9allocatorIcEEEEE_NS7_ISC_EEEC2B7v160006IJRKSC_EJRKSD_EEENS_21piecewise_construct_tENS_5tupleIJDpT_EEENSL_IJDpT0_EEE, symObjAddr: 0xFA78, symBinAddr: 0x100011FC0, symSize: 0x54 }
  - { offsetInCU: 0x28FD9, offset: 0x28FD9, size: 0x8, addend: 0x0, symName: __ZNSt3__122__compressed_pair_elemINS_9allocatorIZN15ChessBoardPrintC1ER10ChessBoardEUlRKNS_12basic_stringIcNS_11char_traitsIcEENS1_IcEEEEE_EELi1ELb1EEC2B7v160006IJRKSD_EJLm0EEEENS_21piecewise_construct_tENS_5tupleIJDpT_EEENS_15__tuple_indicesIJXspT0_EEEE, symObjAddr: 0xFACC, symBinAddr: 0x100012014, symSize: 0x38 }
  - { offsetInCU: 0x2903C, offset: 0x2903C, size: 0x8, addend: 0x0, symName: __ZNSt3__112__tuple_leafILm0ERKNS_9allocatorIZN15ChessBoardPrintC1ER10ChessBoardEUlRKNS_12basic_stringIcNS_11char_traitsIcEENS1_IcEEEEE_EELb0EE3getB7v160006Ev, symObjAddr: 0xFB28, symBinAddr: 0x100012070, symSize: 0x18 }
  - { offsetInCU: 0x29062, offset: 0x29062, size: 0x8, addend: 0x0, symName: __ZNSt3__110__function12__alloc_funcIZN15ChessBoardPrintC1ER10ChessBoardEUlRKNS_12basic_stringIcNS_11char_traitsIcEENS_9allocatorIcEEEEE_NS8_ISD_EEFvSC_EE7destroyB7v160006Ev, symObjAddr: 0xFB40, symBinAddr: 0x100012088, symSize: 0x10 }
  - { offsetInCU: 0x29088, offset: 0x29088, size: 0x8, addend: 0x0, symName: __ZNSt3__110__function12__alloc_funcIZN15ChessBoardPrintC1ER10ChessBoardEUlRKNS_12basic_stringIcNS_11char_traitsIcEENS_9allocatorIcEEEEE_NS8_ISD_EEFvSC_EEclB7v160006ESC_, symObjAddr: 0xFB50, symBinAddr: 0x100012098, symSize: 0x30 }
  - { offsetInCU: 0x290BC, offset: 0x290BC, size: 0x8, addend: 0x0, symName: __ZNSt3__128__invoke_void_return_wrapperIvLb1EE6__callIJRZN15ChessBoardPrintC1ER10ChessBoardEUlRKNS_12basic_stringIcNS_11char_traitsIcEENS_9allocatorIcEEEEE_SD_EEEvDpOT_, symObjAddr: 0xFB80, symBinAddr: 0x1000120C8, symSize: 0x2C }
  - { offsetInCU: 0x290FF, offset: 0x290FF, size: 0x8, addend: 0x0, symName: __ZNSt3__117__compressed_pairIZN15ChessBoardPrintC1ER10ChessBoardEUlRKNS_12basic_stringIcNS_11char_traitsIcEENS_9allocatorIcEEEEE_NS7_ISC_EEE5firstB7v160006Ev, symObjAddr: 0xFBAC, symBinAddr: 0x1000120F4, symSize: 0x24 }
  - { offsetInCU: 0x2912A, offset: 0x2912A, size: 0x8, addend: 0x0, symName: __ZZN15ChessBoardPrintC1ER10ChessBoardENKUlRKNSt3__112basic_stringIcNS2_11char_traitsIcEENS2_9allocatorIcEEEEE_clESA_, symObjAddr: 0xFBFC, symBinAddr: 0x100012144, symSize: 0x48 }
  - { offsetInCU: 0x29162, offset: 0x29162, size: 0x8, addend: 0x0, symName: __ZNSt3__122__compressed_pair_elemIZN15ChessBoardPrintC1ER10ChessBoardEUlRKNS_12basic_stringIcNS_11char_traitsIcEENS_9allocatorIcEEEEE_Li0ELb1EE5__getB7v160006Ev, symObjAddr: 0xFC44, symBinAddr: 0x10001218C, symSize: 0x14 }
  - { offsetInCU: 0x29188, offset: 0x29188, size: 0x8, addend: 0x0, symName: __ZNSt3__110__function12__value_funcIFvRKNS_12basic_stringIcNS_11char_traitsIcEENS_9allocatorIcEEEEEE4swapB7v160006ERSB_, symObjAddr: 0xFC58, symBinAddr: 0x1000121A0, symSize: 0x304 }
  - { offsetInCU: 0x291E1, offset: 0x291E1, size: 0x8, addend: 0x0, symName: __ZNSt3__110__function12__value_funcIFvRKNS_12basic_stringIcNS_11char_traitsIcEENS_9allocatorIcEEEEEE9__as_baseEPv, symObjAddr: 0xFF5C, symBinAddr: 0x1000124A4, symSize: 0x14 }
  - { offsetInCU: 0x29205, offset: 0x29205, size: 0x8, addend: 0x0, symName: __ZNSt3__18functionIFvRKNS_6vectorINS1_INS_10unique_ptrIN10ChessBoard5PieceENS_14default_deleteIS4_EEEENS_9allocatorIS7_EEEENS8_ISA_EEEEEEC1IZN15ChessBoardPrintC1ERS3_EUlSE_E_vEET_, symObjAddr: 0xFFAC, symBinAddr: 0x1000124F4, symSize: 0x2C }
  - { offsetInCU: 0x2924A, offset: 0x2924A, size: 0x8, addend: 0x0, symName: __ZNSt3__18functionIFvRKNS_6vectorINS1_INS_10unique_ptrIN10ChessBoard5PieceENS_14default_deleteIS4_EEEENS_9allocatorIS7_EEEENS8_ISA_EEEEEE4swapERSG_, symObjAddr: 0xFFD8, symBinAddr: 0x100012520, symSize: 0x2C }
  - { offsetInCU: 0x29281, offset: 0x29281, size: 0x8, addend: 0x0, symName: __ZNSt3__18functionIFvRKNS_6vectorINS1_INS_10unique_ptrIN10ChessBoard5PieceENS_14default_deleteIS4_EEEENS_9allocatorIS7_EEEENS8_ISA_EEEEEEC2IZN15ChessBoardPrintC1ERS3_EUlSE_E_vEET_, symObjAddr: 0x10004, symBinAddr: 0x10001254C, symSize: 0x30 }
  - { offsetInCU: 0x292C6, offset: 0x292C6, size: 0x8, addend: 0x0, symName: __ZNSt3__110__function12__value_funcIFvRKNS_6vectorINS2_INS_10unique_ptrIN10ChessBoard5PieceENS_14default_deleteIS5_EEEENS_9allocatorIS8_EEEENS9_ISB_EEEEEEC1B7v160006IZN15ChessBoardPrintC1ERS4_EUlSF_E_vEEOT_, symObjAddr: 0x10034, symBinAddr: 0x10001257C, symSize: 0x50 }
  - { offsetInCU: 0x29309, offset: 0x29309, size: 0x8, addend: 0x0, symName: __ZNSt3__19allocatorIZN15ChessBoardPrintC1ER10ChessBoardEUlRKNS_6vectorINS4_INS_10unique_ptrINS2_5PieceENS_14default_deleteIS6_EEEENS0_IS9_EEEENS0_ISB_EEEEE_EC1B7v160006Ev, symObjAddr: 0x10084, symBinAddr: 0x1000125CC, symSize: 0x2C }
  - { offsetInCU: 0x29333, offset: 0x29333, size: 0x8, addend: 0x0, symName: __ZNSt3__110__function12__value_funcIFvRKNS_6vectorINS2_INS_10unique_ptrIN10ChessBoard5PieceENS_14default_deleteIS5_EEEENS_9allocatorIS8_EEEENS9_ISB_EEEEEEC1B7v160006IZN15ChessBoardPrintC1ERS4_EUlSF_E_NS9_ISL_EEEEOT_RKT0_, symObjAddr: 0x100B0, symBinAddr: 0x1000125F8, symSize: 0x3C }
  - { offsetInCU: 0x2938D, offset: 0x2938D, size: 0x8, addend: 0x0, symName: __ZNSt3__19allocatorIZN15ChessBoardPrintC1ER10ChessBoardEUlRKNS_6vectorINS4_INS_10unique_ptrINS2_5PieceENS_14default_deleteIS6_EEEENS0_IS9_EEEENS0_ISB_EEEEE_EC2B7v160006Ev, symObjAddr: 0x100EC, symBinAddr: 0x100012634, symSize: 0x2C }
  - { offsetInCU: 0x293B7, offset: 0x293B7, size: 0x8, addend: 0x0, symName: __ZNSt3__116__non_trivial_ifILb1ENS_9allocatorIZN15ChessBoardPrintC1ER10ChessBoardEUlRKNS_6vectorINS5_INS_10unique_ptrINS3_5PieceENS_14default_deleteIS7_EEEENS1_ISA_EEEENS1_ISC_EEEEE_EEEC2B7v160006Ev, symObjAddr: 0x10118, symBinAddr: 0x100012660, symSize: 0x14 }
  - { offsetInCU: 0x293E1, offset: 0x293E1, size: 0x8, addend: 0x0, symName: __ZNSt3__110__function12__value_funcIFvRKNS_6vectorINS2_INS_10unique_ptrIN10ChessBoard5PieceENS_14default_deleteIS5_EEEENS_9allocatorIS8_EEEENS9_ISB_EEEEEEC2B7v160006IZN15ChessBoardPrintC1ERS4_EUlSF_E_NS9_ISL_EEEEOT_RKT0_, symObjAddr: 0x1012C, symBinAddr: 0x100012674, symSize: 0x94 }
  - { offsetInCU: 0x29488, offset: 0x29488, size: 0x8, addend: 0x0, symName: __ZNSt3__19allocatorINS_10__function6__funcIZN15ChessBoardPrintC1ER10ChessBoardEUlRKNS_6vectorINS6_INS_10unique_ptrINS4_5PieceENS_14default_deleteIS8_EEEENS0_ISB_EEEENS0_ISD_EEEEE_NS0_ISI_EEFvSH_EEEEC1B7v160006ISI_EERKNS0_IT_EE, symObjAddr: 0x101D8, symBinAddr: 0x100012720, symSize: 0x34 }
  - { offsetInCU: 0x294CA, offset: 0x294CA, size: 0x8, addend: 0x0, symName: __ZNSt3__19allocatorIZN15ChessBoardPrintC1ER10ChessBoardEUlRKNS_6vectorINS4_INS_10unique_ptrINS2_5PieceENS_14default_deleteIS6_EEEENS0_IS9_EEEENS0_ISB_EEEEE_EC1B7v160006INS_10__function6__funcISG_SH_FvSF_EEEEERKNS0_IT_EE, symObjAddr: 0x1020C, symBinAddr: 0x100012754, symSize: 0x34 }
  - { offsetInCU: 0x29507, offset: 0x29507, size: 0x8, addend: 0x0, symName: __ZNSt3__110__function6__funcIZN15ChessBoardPrintC1ER10ChessBoardEUlRKNS_6vectorINS5_INS_10unique_ptrINS3_5PieceENS_14default_deleteIS7_EEEENS_9allocatorISA_EEEENSB_ISD_EEEEE_NSB_ISI_EEFvSH_EEC1B7v160006EOSI_OSJ_, symObjAddr: 0x10240, symBinAddr: 0x100012788, symSize: 0x3C }
  - { offsetInCU: 0x2954F, offset: 0x2954F, size: 0x8, addend: 0x0, symName: __ZNSt3__19allocatorINS_10__function6__funcIZN15ChessBoardPrintC1ER10ChessBoardEUlRKNS_6vectorINS6_INS_10unique_ptrINS4_5PieceENS_14default_deleteIS8_EEEENS0_ISB_EEEENS0_ISD_EEEEE_NS0_ISI_EEFvSH_EEEEC2B7v160006ISI_EERKNS0_IT_EE, symObjAddr: 0x1027C, symBinAddr: 0x1000127C4, symSize: 0x30 }
  - { offsetInCU: 0x2958C, offset: 0x2958C, size: 0x8, addend: 0x0, symName: __ZNSt3__116__non_trivial_ifILb1ENS_9allocatorINS_10__function6__funcIZN15ChessBoardPrintC1ER10ChessBoardEUlRKNS_6vectorINS7_INS_10unique_ptrINS5_5PieceENS_14default_deleteIS9_EEEENS1_ISC_EEEENS1_ISE_EEEEE_NS1_ISJ_EEFvSI_EEEEEEC2B7v160006Ev, symObjAddr: 0x102AC, symBinAddr: 0x1000127F4, symSize: 0x14 }
  - { offsetInCU: 0x295B6, offset: 0x295B6, size: 0x8, addend: 0x0, symName: __ZNSt3__19allocatorIZN15ChessBoardPrintC1ER10ChessBoardEUlRKNS_6vectorINS4_INS_10unique_ptrINS2_5PieceENS_14default_deleteIS6_EEEENS0_IS9_EEEENS0_ISB_EEEEE_EC2B7v160006INS_10__function6__funcISG_SH_FvSF_EEEEERKNS0_IT_EE, symObjAddr: 0x102C0, symBinAddr: 0x100012808, symSize: 0x30 }
  - { offsetInCU: 0x295F3, offset: 0x295F3, size: 0x8, addend: 0x0, symName: __ZNSt3__110__function6__funcIZN15ChessBoardPrintC1ER10ChessBoardEUlRKNS_6vectorINS5_INS_10unique_ptrINS3_5PieceENS_14default_deleteIS7_EEEENS_9allocatorISA_EEEENSB_ISD_EEEEE_NSB_ISI_EEFvSH_EEC2B7v160006EOSI_OSJ_, symObjAddr: 0x102F0, symBinAddr: 0x100012838, symSize: 0x88 }
  - { offsetInCU: 0x2963B, offset: 0x2963B, size: 0x8, addend: 0x0, symName: __ZNSt3__110__function6__baseIFvRKNS_6vectorINS2_INS_10unique_ptrIN10ChessBoard5PieceENS_14default_deleteIS5_EEEENS_9allocatorIS8_EEEENS9_ISB_EEEEEEC2B7v160006Ev, symObjAddr: 0x10378, symBinAddr: 0x1000128C0, symSize: 0x24 }
  - { offsetInCU: 0x29665, offset: 0x29665, size: 0x8, addend: 0x0, symName: __ZNSt3__110__function12__alloc_funcIZN15ChessBoardPrintC1ER10ChessBoardEUlRKNS_6vectorINS5_INS_10unique_ptrINS3_5PieceENS_14default_deleteIS7_EEEENS_9allocatorISA_EEEENSB_ISD_EEEEE_NSB_ISI_EEFvSH_EEC1B7v160006EOSI_OSJ_, symObjAddr: 0x1039C, symBinAddr: 0x1000128E4, symSize: 0x3C }
  - { offsetInCU: 0x296AB, offset: 0x296AB, size: 0x8, addend: 0x0, symName: __ZNSt3__110__function6__baseIFvRKNS_6vectorINS2_INS_10unique_ptrIN10ChessBoard5PieceENS_14default_deleteIS5_EEEENS_9allocatorIS8_EEEENS9_ISB_EEEEEED2Ev, symObjAddr: 0x103D8, symBinAddr: 0x100012920, symSize: 0x14 }
  - { offsetInCU: 0x296D5, offset: 0x296D5, size: 0x8, addend: 0x0, symName: __ZNSt3__110__function6__funcIZN15ChessBoardPrintC1ER10ChessBoardEUlRKNS_6vectorINS5_INS_10unique_ptrINS3_5PieceENS_14default_deleteIS7_EEEENS_9allocatorISA_EEEENSB_ISD_EEEEE_NSB_ISI_EEFvSH_EED1Ev, symObjAddr: 0x103EC, symBinAddr: 0x100012934, symSize: 0x2C }
  - { offsetInCU: 0x29702, offset: 0x29702, size: 0x8, addend: 0x0, symName: __ZNSt3__110__function6__funcIZN15ChessBoardPrintC1ER10ChessBoardEUlRKNS_6vectorINS5_INS_10unique_ptrINS3_5PieceENS_14default_deleteIS7_EEEENS_9allocatorISA_EEEENSB_ISD_EEEEE_NSB_ISI_EEFvSH_EED0Ev, symObjAddr: 0x10418, symBinAddr: 0x100012960, symSize: 0x30 }
  - { offsetInCU: 0x2972F, offset: 0x2972F, size: 0x8, addend: 0x0, symName: __ZNKSt3__110__function6__funcIZN15ChessBoardPrintC1ER10ChessBoardEUlRKNS_6vectorINS5_INS_10unique_ptrINS3_5PieceENS_14default_deleteIS7_EEEENS_9allocatorISA_EEEENSB_ISD_EEEEE_NSB_ISI_EEFvSH_EE7__cloneEv, symObjAddr: 0x10448, symBinAddr: 0x100012990, symSize: 0xFC }
  - { offsetInCU: 0x29781, offset: 0x29781, size: 0x8, addend: 0x0, symName: __ZNKSt3__110__function6__funcIZN15ChessBoardPrintC1ER10ChessBoardEUlRKNS_6vectorINS5_INS_10unique_ptrINS3_5PieceENS_14default_deleteIS7_EEEENS_9allocatorISA_EEEENSB_ISD_EEEEE_NSB_ISI_EEFvSH_EE7__cloneEPNS0_6__baseISK_EE, symObjAddr: 0x10544, symBinAddr: 0x100012A8C, symSize: 0x58 }
  - { offsetInCU: 0x297B8, offset: 0x297B8, size: 0x8, addend: 0x0, symName: __ZNSt3__110__function6__funcIZN15ChessBoardPrintC1ER10ChessBoardEUlRKNS_6vectorINS5_INS_10unique_ptrINS3_5PieceENS_14default_deleteIS7_EEEENS_9allocatorISA_EEEENSB_ISD_EEEEE_NSB_ISI_EEFvSH_EE7destroyEv, symObjAddr: 0x1059C, symBinAddr: 0x100012AE4, symSize: 0x28 }
  - { offsetInCU: 0x297E0, offset: 0x297E0, size: 0x8, addend: 0x0, symName: __ZNSt3__110__function6__funcIZN15ChessBoardPrintC1ER10ChessBoardEUlRKNS_6vectorINS5_INS_10unique_ptrINS3_5PieceENS_14default_deleteIS7_EEEENS_9allocatorISA_EEEENSB_ISD_EEEEE_NSB_ISI_EEFvSH_EE18destroy_deallocateEv, symObjAddr: 0x105C4, symBinAddr: 0x100012B0C, symSize: 0x58 }
  - { offsetInCU: 0x29823, offset: 0x29823, size: 0x8, addend: 0x0, symName: __ZNSt3__110__function6__funcIZN15ChessBoardPrintC1ER10ChessBoardEUlRKNS_6vectorINS5_INS_10unique_ptrINS3_5PieceENS_14default_deleteIS7_EEEENS_9allocatorISA_EEEENSB_ISD_EEEEE_NSB_ISI_EEFvSH_EEclESH_, symObjAddr: 0x1061C, symBinAddr: 0x100012B64, symSize: 0x30 }
  - { offsetInCU: 0x2985A, offset: 0x2985A, size: 0x8, addend: 0x0, symName: __ZNKSt3__110__function6__funcIZN15ChessBoardPrintC1ER10ChessBoardEUlRKNS_6vectorINS5_INS_10unique_ptrINS3_5PieceENS_14default_deleteIS7_EEEENS_9allocatorISA_EEEENSB_ISD_EEEEE_NSB_ISI_EEFvSH_EE6targetERKSt9type_info, symObjAddr: 0x1064C, symBinAddr: 0x100012B94, symSize: 0x60 }
  - { offsetInCU: 0x29891, offset: 0x29891, size: 0x8, addend: 0x0, symName: __ZNKSt3__110__function6__funcIZN15ChessBoardPrintC1ER10ChessBoardEUlRKNS_6vectorINS5_INS_10unique_ptrINS3_5PieceENS_14default_deleteIS7_EEEENS_9allocatorISA_EEEENSB_ISD_EEEEE_NSB_ISI_EEFvSH_EE11target_typeEv, symObjAddr: 0x106AC, symBinAddr: 0x100012BF4, symSize: 0x18 }
  - { offsetInCU: 0x298B9, offset: 0x298B9, size: 0x8, addend: 0x0, symName: __ZNSt3__110__function6__baseIFvRKNS_6vectorINS2_INS_10unique_ptrIN10ChessBoard5PieceENS_14default_deleteIS5_EEEENS_9allocatorIS8_EEEENS9_ISB_EEEEEED1Ev, symObjAddr: 0x106C4, symBinAddr: 0x100012C0C, symSize: 0x14 }
  - { offsetInCU: 0x298E3, offset: 0x298E3, size: 0x8, addend: 0x0, symName: __ZNSt3__110__function6__baseIFvRKNS_6vectorINS2_INS_10unique_ptrIN10ChessBoard5PieceENS_14default_deleteIS5_EEEENS_9allocatorIS8_EEEENS9_ISB_EEEEEED0Ev, symObjAddr: 0x106D8, symBinAddr: 0x100012C20, symSize: 0xC }
  - { offsetInCU: 0x2990D, offset: 0x2990D, size: 0x8, addend: 0x0, symName: __ZNSt3__110__function12__alloc_funcIZN15ChessBoardPrintC1ER10ChessBoardEUlRKNS_6vectorINS5_INS_10unique_ptrINS3_5PieceENS_14default_deleteIS7_EEEENS_9allocatorISA_EEEENSB_ISD_EEEEE_NSB_ISI_EEFvSH_EEC2B7v160006EOSI_OSJ_, symObjAddr: 0x106E4, symBinAddr: 0x100012C2C, symSize: 0x5C }
  - { offsetInCU: 0x29953, offset: 0x29953, size: 0x8, addend: 0x0, symName: __ZNSt3__117__compressed_pairIZN15ChessBoardPrintC1ER10ChessBoardEUlRKNS_6vectorINS4_INS_10unique_ptrINS2_5PieceENS_14default_deleteIS6_EEEENS_9allocatorIS9_EEEENSA_ISC_EEEEE_NSA_ISH_EEEC1B7v160006IJOSH_EJOSI_EEENS_21piecewise_construct_tENS_5tupleIJDpT_EEENSO_IJDpT0_EEE, symObjAddr: 0x10798, symBinAddr: 0x100012CE0, symSize: 0x3C }
  - { offsetInCU: 0x299BD, offset: 0x299BD, size: 0x8, addend: 0x0, symName: __ZNSt3__15tupleIJOZN15ChessBoardPrintC1ER10ChessBoardEUlRKNS_6vectorINS4_INS_10unique_ptrINS2_5PieceENS_14default_deleteIS6_EEEENS_9allocatorIS9_EEEENSA_ISC_EEEEE_EEC1B7v160006IJSH_ELi0EEEDpOT_, symObjAddr: 0x107D4, symBinAddr: 0x100012D1C, symSize: 0x34 }
  - { offsetInCU: 0x29A07, offset: 0x29A07, size: 0x8, addend: 0x0, symName: __ZNSt3__15tupleIJOZN15ChessBoardPrintC1ER10ChessBoardEUlRKNS_6vectorINS4_INS_10unique_ptrINS2_5PieceENS_14default_deleteIS6_EEEENS_9allocatorIS9_EEEENSA_ISC_EEEEE_EEC2B7v160006IJSH_ELi0EEEDpOT_, symObjAddr: 0x10808, symBinAddr: 0x100012D50, symSize: 0x34 }
  - { offsetInCU: 0x29A51, offset: 0x29A51, size: 0x8, addend: 0x0, symName: __ZNSt3__112__tuple_implINS_15__tuple_indicesIJLm0EEEEJOZN15ChessBoardPrintC1ER10ChessBoardEUlRKNS_6vectorINS6_INS_10unique_ptrINS4_5PieceENS_14default_deleteIS8_EEEENS_9allocatorISB_EEEENSC_ISE_EEEEE_EEC1B7v160006IJLm0EEJSK_EJEJEJSJ_EEENS1_IJXspT_EEEENS_13__tuple_typesIJDpT0_EEENS1_IJXspT1_EEEENSO_IJDpT2_EEEDpOT3_, symObjAddr: 0x1083C, symBinAddr: 0x100012D84, symSize: 0x34 }
  - { offsetInCU: 0x29AE6, offset: 0x29AE6, size: 0x8, addend: 0x0, symName: __ZNSt3__112__tuple_implINS_15__tuple_indicesIJLm0EEEEJOZN15ChessBoardPrintC1ER10ChessBoardEUlRKNS_6vectorINS6_INS_10unique_ptrINS4_5PieceENS_14default_deleteIS8_EEEENS_9allocatorISB_EEEENSC_ISE_EEEEE_EEC2B7v160006IJLm0EEJSK_EJEJEJSJ_EEENS1_IJXspT_EEEENS_13__tuple_typesIJDpT0_EEENS1_IJXspT1_EEEENSO_IJDpT2_EEEDpOT3_, symObjAddr: 0x10870, symBinAddr: 0x100012DB8, symSize: 0x34 }
  - { offsetInCU: 0x29B7B, offset: 0x29B7B, size: 0x8, addend: 0x0, symName: __ZNSt3__112__tuple_leafILm0EOZN15ChessBoardPrintC1ER10ChessBoardEUlRKNS_6vectorINS4_INS_10unique_ptrINS2_5PieceENS_14default_deleteIS6_EEEENS_9allocatorIS9_EEEENSA_ISC_EEEEE_Lb0EEC2B7v160006ISH_vEEOT_, symObjAddr: 0x108A4, symBinAddr: 0x100012DEC, symSize: 0x20 }
  - { offsetInCU: 0x29BBE, offset: 0x29BBE, size: 0x8, addend: 0x0, symName: __ZNSt3__15tupleIJONS_9allocatorIZN15ChessBoardPrintC1ER10ChessBoardEUlRKNS_6vectorINS5_INS_10unique_ptrINS3_5PieceENS_14default_deleteIS7_EEEENS1_ISA_EEEENS1_ISC_EEEEE_EEEEC1B7v160006IJSI_ELi0EEEDpOT_, symObjAddr: 0x108C4, symBinAddr: 0x100012E0C, symSize: 0x34 }
  - { offsetInCU: 0x29C08, offset: 0x29C08, size: 0x8, addend: 0x0, symName: __ZNSt3__15tupleIJONS_9allocatorIZN15ChessBoardPrintC1ER10ChessBoardEUlRKNS_6vectorINS5_INS_10unique_ptrINS3_5PieceENS_14default_deleteIS7_EEEENS1_ISA_EEEENS1_ISC_EEEEE_EEEEC2B7v160006IJSI_ELi0EEEDpOT_, symObjAddr: 0x108F8, symBinAddr: 0x100012E40, symSize: 0x34 }
  - { offsetInCU: 0x29C52, offset: 0x29C52, size: 0x8, addend: 0x0, symName: __ZNSt3__112__tuple_implINS_15__tuple_indicesIJLm0EEEEJONS_9allocatorIZN15ChessBoardPrintC1ER10ChessBoardEUlRKNS_6vectorINS7_INS_10unique_ptrINS5_5PieceENS_14default_deleteIS9_EEEENS3_ISC_EEEENS3_ISE_EEEEE_EEEEC1B7v160006IJLm0EEJSL_EJEJEJSK_EEENS1_IJXspT_EEEENS_13__tuple_typesIJDpT0_EEENS1_IJXspT1_EEEENSP_IJDpT2_EEEDpOT3_, symObjAddr: 0x1092C, symBinAddr: 0x100012E74, symSize: 0x34 }
  - { offsetInCU: 0x29CE7, offset: 0x29CE7, size: 0x8, addend: 0x0, symName: __ZNSt3__112__tuple_implINS_15__tuple_indicesIJLm0EEEEJONS_9allocatorIZN15ChessBoardPrintC1ER10ChessBoardEUlRKNS_6vectorINS7_INS_10unique_ptrINS5_5PieceENS_14default_deleteIS9_EEEENS3_ISC_EEEENS3_ISE_EEEEE_EEEEC2B7v160006IJLm0EEJSL_EJEJEJSK_EEENS1_IJXspT_EEEENS_13__tuple_typesIJDpT0_EEENS1_IJXspT1_EEEENSP_IJDpT2_EEEDpOT3_, symObjAddr: 0x10960, symBinAddr: 0x100012EA8, symSize: 0x34 }
  - { offsetInCU: 0x29D7C, offset: 0x29D7C, size: 0x8, addend: 0x0, symName: __ZNSt3__112__tuple_leafILm0EONS_9allocatorIZN15ChessBoardPrintC1ER10ChessBoardEUlRKNS_6vectorINS5_INS_10unique_ptrINS3_5PieceENS_14default_deleteIS7_EEEENS1_ISA_EEEENS1_ISC_EEEEE_EELb0EEC2B7v160006ISI_vEEOT_, symObjAddr: 0x10994, symBinAddr: 0x100012EDC, symSize: 0x20 }
  - { offsetInCU: 0x29DBF, offset: 0x29DBF, size: 0x8, addend: 0x0, symName: __ZNSt3__117__compressed_pairIZN15ChessBoardPrintC1ER10ChessBoardEUlRKNS_6vectorINS4_INS_10unique_ptrINS2_5PieceENS_14default_deleteIS6_EEEENS_9allocatorIS9_EEEENSA_ISC_EEEEE_NSA_ISH_EEEC2B7v160006IJOSH_EJOSI_EEENS_21piecewise_construct_tENS_5tupleIJDpT_EEENSO_IJDpT0_EEE, symObjAddr: 0x109B4, symBinAddr: 0x100012EFC, symSize: 0x54 }
  - { offsetInCU: 0x29E29, offset: 0x29E29, size: 0x8, addend: 0x0, symName: __ZNSt3__122__compressed_pair_elemIZN15ChessBoardPrintC1ER10ChessBoardEUlRKNS_6vectorINS4_INS_10unique_ptrINS2_5PieceENS_14default_deleteIS6_EEEENS_9allocatorIS9_EEEENSA_ISC_EEEEE_Li0ELb1EEC2B7v160006IJOSH_EJLm0EEEENS_21piecewise_construct_tENS_5tupleIJDpT_EEENS_15__tuple_indicesIJXspT0_EEEE, symObjAddr: 0x10A08, symBinAddr: 0x100012F50, symSize: 0x38 }
  - { offsetInCU: 0x29E8C, offset: 0x29E8C, size: 0x8, addend: 0x0, symName: __ZNSt3__122__compressed_pair_elemINS_9allocatorIZN15ChessBoardPrintC1ER10ChessBoardEUlRKNS_6vectorINS5_INS_10unique_ptrINS3_5PieceENS_14default_deleteIS7_EEEENS1_ISA_EEEENS1_ISC_EEEEE_EELi1ELb1EEC2B7v160006IJOSI_EJLm0EEEENS_21piecewise_construct_tENS_5tupleIJDpT_EEENS_15__tuple_indicesIJXspT0_EEEE, symObjAddr: 0x10A40, symBinAddr: 0x100012F88, symSize: 0x38 }
  - { offsetInCU: 0x29EEF, offset: 0x29EEF, size: 0x8, addend: 0x0, symName: __ZNSt3__112__tuple_leafILm0EOZN15ChessBoardPrintC1ER10ChessBoardEUlRKNS_6vectorINS4_INS_10unique_ptrINS2_5PieceENS_14default_deleteIS6_EEEENS_9allocatorIS9_EEEENSA_ISC_EEEEE_Lb0EE3getB7v160006Ev, symObjAddr: 0x10A9C, symBinAddr: 0x100012FE4, symSize: 0x18 }
  - { offsetInCU: 0x29F15, offset: 0x29F15, size: 0x8, addend: 0x0, symName: __ZNSt3__112__tuple_leafILm0EONS_9allocatorIZN15ChessBoardPrintC1ER10ChessBoardEUlRKNS_6vectorINS5_INS_10unique_ptrINS3_5PieceENS_14default_deleteIS7_EEEENS1_ISA_EEEENS1_ISC_EEEEE_EELb0EE3getB7v160006Ev, symObjAddr: 0x10AD8, symBinAddr: 0x100013020, symSize: 0x18 }
  - { offsetInCU: 0x29F3B, offset: 0x29F3B, size: 0x8, addend: 0x0, symName: __ZNSt3__110__function6__funcIZN15ChessBoardPrintC1ER10ChessBoardEUlRKNS_6vectorINS5_INS_10unique_ptrINS3_5PieceENS_14default_deleteIS7_EEEENS_9allocatorISA_EEEENSB_ISD_EEEEE_NSB_ISI_EEFvSH_EED2Ev, symObjAddr: 0x10AF0, symBinAddr: 0x100013038, symSize: 0x2C }
  - { offsetInCU: 0x29F68, offset: 0x29F68, size: 0x8, addend: 0x0, symName: __ZNKSt3__110__function12__alloc_funcIZN15ChessBoardPrintC1ER10ChessBoardEUlRKNS_6vectorINS5_INS_10unique_ptrINS3_5PieceENS_14default_deleteIS7_EEEENS_9allocatorISA_EEEENSB_ISD_EEEEE_NSB_ISI_EEFvSH_EE15__get_allocatorB7v160006Ev, symObjAddr: 0x10B1C, symBinAddr: 0x100013064, symSize: 0x24 }
  - { offsetInCU: 0x29F8E, offset: 0x29F8E, size: 0x8, addend: 0x0, symName: __ZNSt3__19allocatorINS_10__function6__funcIZN15ChessBoardPrintC1ER10ChessBoardEUlRKNS_6vectorINS6_INS_10unique_ptrINS4_5PieceENS_14default_deleteIS8_EEEENS0_ISB_EEEENS0_ISD_EEEEE_NS0_ISI_EEFvSH_EEEE8allocateB7v160006Em, symObjAddr: 0x10B40, symBinAddr: 0x100013088, symSize: 0x58 }
  - { offsetInCU: 0x29FD1, offset: 0x29FD1, size: 0x8, addend: 0x0, symName: __ZNSt3__122__allocator_destructorINS_9allocatorINS_10__function6__funcIZN15ChessBoardPrintC1ER10ChessBoardEUlRKNS_6vectorINS7_INS_10unique_ptrINS5_5PieceENS_14default_deleteIS9_EEEENS1_ISC_EEEENS1_ISE_EEEEE_NS1_ISJ_EEFvSI_EEEEEEC1B7v160006ERSN_m, symObjAddr: 0x10B98, symBinAddr: 0x1000130E0, symSize: 0x3C }
  - { offsetInCU: 0x2A0A5, offset: 0x2A0A5, size: 0x8, addend: 0x0, symName: __ZNSt3__110unique_ptrINS_10__function6__funcIZN15ChessBoardPrintC1ER10ChessBoardEUlRKNS_6vectorINS6_INS0_INS4_5PieceENS_14default_deleteIS7_EEEENS_9allocatorISA_EEEENSB_ISD_EEEEE_NSB_ISI_EEFvSH_EEENS_22__allocator_destructorINSB_ISL_EEEEEC1B7v160006ILb1EvEEPSL_NS_16__dependent_typeINS_27__unique_ptr_deleter_sfinaeISO_EEXT_EE20__good_rval_ref_typeE, symObjAddr: 0x10BD4, symBinAddr: 0x10001311C, symSize: 0x3C }
  - { offsetInCU: 0x2A0F6, offset: 0x2A0F6, size: 0x8, addend: 0x0, symName: __ZNKSt3__110unique_ptrINS_10__function6__funcIZN15ChessBoardPrintC1ER10ChessBoardEUlRKNS_6vectorINS6_INS0_INS4_5PieceENS_14default_deleteIS7_EEEENS_9allocatorISA_EEEENSB_ISD_EEEEE_NSB_ISI_EEFvSH_EEENS_22__allocator_destructorINSB_ISL_EEEEE3getB7v160006Ev, symObjAddr: 0x10C10, symBinAddr: 0x100013158, symSize: 0x28 }
  - { offsetInCU: 0x2A11C, offset: 0x2A11C, size: 0x8, addend: 0x0, symName: __ZNKSt3__110__function12__alloc_funcIZN15ChessBoardPrintC1ER10ChessBoardEUlRKNS_6vectorINS5_INS_10unique_ptrINS3_5PieceENS_14default_deleteIS7_EEEENS_9allocatorISA_EEEENSB_ISD_EEEEE_NSB_ISI_EEFvSH_EE8__targetB7v160006Ev, symObjAddr: 0x10C38, symBinAddr: 0x100013180, symSize: 0x24 }
  - { offsetInCU: 0x2A142, offset: 0x2A142, size: 0x8, addend: 0x0, symName: __ZNSt3__110__function6__funcIZN15ChessBoardPrintC1ER10ChessBoardEUlRKNS_6vectorINS5_INS_10unique_ptrINS3_5PieceENS_14default_deleteIS7_EEEENS_9allocatorISA_EEEENSB_ISD_EEEEE_NSB_ISI_EEFvSH_EEC1B7v160006ERKSI_OSJ_, symObjAddr: 0x10C5C, symBinAddr: 0x1000131A4, symSize: 0x3C }
  - { offsetInCU: 0x2A18A, offset: 0x2A18A, size: 0x8, addend: 0x0, symName: __ZNSt3__110unique_ptrINS_10__function6__funcIZN15ChessBoardPrintC1ER10ChessBoardEUlRKNS_6vectorINS6_INS0_INS4_5PieceENS_14default_deleteIS7_EEEENS_9allocatorISA_EEEENSB_ISD_EEEEE_NSB_ISI_EEFvSH_EEENS_22__allocator_destructorINSB_ISL_EEEEE7releaseB7v160006Ev, symObjAddr: 0x10C98, symBinAddr: 0x1000131E0, symSize: 0x44 }
  - { offsetInCU: 0x2A1BF, offset: 0x2A1BF, size: 0x8, addend: 0x0, symName: __ZNSt3__110unique_ptrINS_10__function6__funcIZN15ChessBoardPrintC1ER10ChessBoardEUlRKNS_6vectorINS6_INS0_INS4_5PieceENS_14default_deleteIS7_EEEENS_9allocatorISA_EEEENSB_ISD_EEEEE_NSB_ISI_EEFvSH_EEENS_22__allocator_destructorINSB_ISL_EEEEED1B7v160006Ev, symObjAddr: 0x10CDC, symBinAddr: 0x100013224, symSize: 0x2C }
  - { offsetInCU: 0x2A1E9, offset: 0x2A1E9, size: 0x8, addend: 0x0, symName: __ZNKSt3__117__compressed_pairIZN15ChessBoardPrintC1ER10ChessBoardEUlRKNS_6vectorINS4_INS_10unique_ptrINS2_5PieceENS_14default_deleteIS6_EEEENS_9allocatorIS9_EEEENSA_ISC_EEEEE_NSA_ISH_EEE6secondB7v160006Ev, symObjAddr: 0x10D08, symBinAddr: 0x100013250, symSize: 0x24 }
  - { offsetInCU: 0x2A20F, offset: 0x2A20F, size: 0x8, addend: 0x0, symName: __ZNKSt3__122__compressed_pair_elemINS_9allocatorIZN15ChessBoardPrintC1ER10ChessBoardEUlRKNS_6vectorINS5_INS_10unique_ptrINS3_5PieceENS_14default_deleteIS7_EEEENS1_ISA_EEEENS1_ISC_EEEEE_EELi1ELb1EE5__getB7v160006Ev, symObjAddr: 0x10D2C, symBinAddr: 0x100013274, symSize: 0x14 }
  - { offsetInCU: 0x2A23F, offset: 0x2A23F, size: 0x8, addend: 0x0, symName: __ZNSt3__116allocator_traitsINS_9allocatorINS_10__function6__funcIZN15ChessBoardPrintC1ER10ChessBoardEUlRKNS_6vectorINS7_INS_10unique_ptrINS5_5PieceENS_14default_deleteIS9_EEEENS1_ISC_EEEENS1_ISE_EEEEE_NS1_ISJ_EEFvSI_EEEEEE8max_sizeB7v160006ISN_vEEmRKSN_, symObjAddr: 0x10D40, symBinAddr: 0x100013288, symSize: 0x24 }
  - { offsetInCU: 0x2A26D, offset: 0x2A26D, size: 0x8, addend: 0x0, symName: __ZNKSt3__19allocatorINS_10__function6__funcIZN15ChessBoardPrintC1ER10ChessBoardEUlRKNS_6vectorINS6_INS_10unique_ptrINS4_5PieceENS_14default_deleteIS8_EEEENS0_ISB_EEEENS0_ISD_EEEEE_NS0_ISI_EEFvSH_EEEE8max_sizeB7v160006Ev, symObjAddr: 0x10D64, symBinAddr: 0x1000132AC, symSize: 0x14 }
  - { offsetInCU: 0x2A293, offset: 0x2A293, size: 0x8, addend: 0x0, symName: __ZNSt3__122__allocator_destructorINS_9allocatorINS_10__function6__funcIZN15ChessBoardPrintC1ER10ChessBoardEUlRKNS_6vectorINS7_INS_10unique_ptrINS5_5PieceENS_14default_deleteIS9_EEEENS1_ISC_EEEENS1_ISE_EEEEE_NS1_ISJ_EEFvSI_EEEEEEC2B7v160006ERSN_m, symObjAddr: 0x10D78, symBinAddr: 0x1000132C0, symSize: 0x2C }
  - { offsetInCU: 0x2A2D9, offset: 0x2A2D9, size: 0x8, addend: 0x0, symName: __ZNSt3__110unique_ptrINS_10__function6__funcIZN15ChessBoardPrintC1ER10ChessBoardEUlRKNS_6vectorINS6_INS0_INS4_5PieceENS_14default_deleteIS7_EEEENS_9allocatorISA_EEEENSB_ISD_EEEEE_NSB_ISI_EEFvSH_EEENS_22__allocator_destructorINSB_ISL_EEEEEC2B7v160006ILb1EvEEPSL_NS_16__dependent_typeINS_27__unique_ptr_deleter_sfinaeISO_EEXT_EE20__good_rval_ref_typeE, symObjAddr: 0x10DA4, symBinAddr: 0x1000132EC, symSize: 0x48 }
  - { offsetInCU: 0x2A32A, offset: 0x2A32A, size: 0x8, addend: 0x0, symName: __ZNSt3__117__compressed_pairIPNS_10__function6__funcIZN15ChessBoardPrintC1ER10ChessBoardEUlRKNS_6vectorINS6_INS_10unique_ptrINS4_5PieceENS_14default_deleteIS8_EEEENS_9allocatorISB_EEEENSC_ISE_EEEEE_NSC_ISJ_EEFvSI_EEENS_22__allocator_destructorINSC_ISM_EEEEEC1B7v160006IRSN_SQ_EEOT_OT0_, symObjAddr: 0x10DEC, symBinAddr: 0x100013334, symSize: 0x3C }
  - { offsetInCU: 0x2A382, offset: 0x2A382, size: 0x8, addend: 0x0, symName: __ZNSt3__117__compressed_pairIPNS_10__function6__funcIZN15ChessBoardPrintC1ER10ChessBoardEUlRKNS_6vectorINS6_INS_10unique_ptrINS4_5PieceENS_14default_deleteIS8_EEEENS_9allocatorISB_EEEENSC_ISE_EEEEE_NSC_ISJ_EEFvSI_EEENS_22__allocator_destructorINSC_ISM_EEEEEC2B7v160006IRSN_SQ_EEOT_OT0_, symObjAddr: 0x10E28, symBinAddr: 0x100013370, symSize: 0x48 }
  - { offsetInCU: 0x2A3DA, offset: 0x2A3DA, size: 0x8, addend: 0x0, symName: __ZNSt3__122__compressed_pair_elemIPNS_10__function6__funcIZN15ChessBoardPrintC1ER10ChessBoardEUlRKNS_6vectorINS6_INS_10unique_ptrINS4_5PieceENS_14default_deleteIS8_EEEENS_9allocatorISB_EEEENSC_ISE_EEEEE_NSC_ISJ_EEFvSI_EEELi0ELb0EEC2B7v160006IRSN_vEEOT_, symObjAddr: 0x10E70, symBinAddr: 0x1000133B8, symSize: 0x24 }
  - { offsetInCU: 0x2A41C, offset: 0x2A41C, size: 0x8, addend: 0x0, symName: __ZNSt3__122__compressed_pair_elemINS_22__allocator_destructorINS_9allocatorINS_10__function6__funcIZN15ChessBoardPrintC1ER10ChessBoardEUlRKNS_6vectorINS8_INS_10unique_ptrINS6_5PieceENS_14default_deleteISA_EEEENS2_ISD_EEEENS2_ISF_EEEEE_NS2_ISK_EEFvSJ_EEEEEEELi1ELb0EEC2B7v160006ISP_vEEOT_, symObjAddr: 0x10E94, symBinAddr: 0x1000133DC, symSize: 0x24 }
  - { offsetInCU: 0x2A45E, offset: 0x2A45E, size: 0x8, addend: 0x0, symName: __ZNKSt3__117__compressed_pairIPNS_10__function6__funcIZN15ChessBoardPrintC1ER10ChessBoardEUlRKNS_6vectorINS6_INS_10unique_ptrINS4_5PieceENS_14default_deleteIS8_EEEENS_9allocatorISB_EEEENSC_ISE_EEEEE_NSC_ISJ_EEFvSI_EEENS_22__allocator_destructorINSC_ISM_EEEEE5firstB7v160006Ev, symObjAddr: 0x10EB8, symBinAddr: 0x100013400, symSize: 0x24 }
  - { offsetInCU: 0x2A484, offset: 0x2A484, size: 0x8, addend: 0x0, symName: __ZNKSt3__122__compressed_pair_elemIPNS_10__function6__funcIZN15ChessBoardPrintC1ER10ChessBoardEUlRKNS_6vectorINS6_INS_10unique_ptrINS4_5PieceENS_14default_deleteIS8_EEEENS_9allocatorISB_EEEENSC_ISE_EEEEE_NSC_ISJ_EEFvSI_EEELi0ELb0EE5__getB7v160006Ev, symObjAddr: 0x10EDC, symBinAddr: 0x100013424, symSize: 0x14 }
  - { offsetInCU: 0x2A4AA, offset: 0x2A4AA, size: 0x8, addend: 0x0, symName: __ZNKSt3__117__compressed_pairIZN15ChessBoardPrintC1ER10ChessBoardEUlRKNS_6vectorINS4_INS_10unique_ptrINS2_5PieceENS_14default_deleteIS6_EEEENS_9allocatorIS9_EEEENSA_ISC_EEEEE_NSA_ISH_EEE5firstB7v160006Ev, symObjAddr: 0x10EF0, symBinAddr: 0x100013438, symSize: 0x24 }
  - { offsetInCU: 0x2A4D0, offset: 0x2A4D0, size: 0x8, addend: 0x0, symName: __ZNKSt3__122__compressed_pair_elemIZN15ChessBoardPrintC1ER10ChessBoardEUlRKNS_6vectorINS4_INS_10unique_ptrINS2_5PieceENS_14default_deleteIS6_EEEENS_9allocatorIS9_EEEENSA_ISC_EEEEE_Li0ELb1EE5__getB7v160006Ev, symObjAddr: 0x10F14, symBinAddr: 0x10001345C, symSize: 0x14 }
  - { offsetInCU: 0x2A4F6, offset: 0x2A4F6, size: 0x8, addend: 0x0, symName: __ZNSt3__110__function6__funcIZN15ChessBoardPrintC1ER10ChessBoardEUlRKNS_6vectorINS5_INS_10unique_ptrINS3_5PieceENS_14default_deleteIS7_EEEENS_9allocatorISA_EEEENSB_ISD_EEEEE_NSB_ISI_EEFvSH_EEC2B7v160006ERKSI_OSJ_, symObjAddr: 0x10F28, symBinAddr: 0x100013470, symSize: 0x88 }
  - { offsetInCU: 0x2A53E, offset: 0x2A53E, size: 0x8, addend: 0x0, symName: __ZNSt3__110__function12__alloc_funcIZN15ChessBoardPrintC1ER10ChessBoardEUlRKNS_6vectorINS5_INS_10unique_ptrINS3_5PieceENS_14default_deleteIS7_EEEENS_9allocatorISA_EEEENSB_ISD_EEEEE_NSB_ISI_EEFvSH_EEC1B7v160006ERKSI_OSJ_, symObjAddr: 0x10FB0, symBinAddr: 0x1000134F8, symSize: 0x3C }
  - { offsetInCU: 0x2A584, offset: 0x2A584, size: 0x8, addend: 0x0, symName: __ZNSt3__110__function12__alloc_funcIZN15ChessBoardPrintC1ER10ChessBoardEUlRKNS_6vectorINS5_INS_10unique_ptrINS3_5PieceENS_14default_deleteIS7_EEEENS_9allocatorISA_EEEENSB_ISD_EEEEE_NSB_ISI_EEFvSH_EEC2B7v160006ERKSI_OSJ_, symObjAddr: 0x10FEC, symBinAddr: 0x100013534, symSize: 0x5C }
  - { offsetInCU: 0x2A5CA, offset: 0x2A5CA, size: 0x8, addend: 0x0, symName: __ZNSt3__117__compressed_pairIZN15ChessBoardPrintC1ER10ChessBoardEUlRKNS_6vectorINS4_INS_10unique_ptrINS2_5PieceENS_14default_deleteIS6_EEEENS_9allocatorIS9_EEEENSA_ISC_EEEEE_NSA_ISH_EEEC1B7v160006IJRKSH_EJOSI_EEENS_21piecewise_construct_tENS_5tupleIJDpT_EEENSP_IJDpT0_EEE, symObjAddr: 0x11074, symBinAddr: 0x1000135BC, symSize: 0x3C }
  - { offsetInCU: 0x2A634, offset: 0x2A634, size: 0x8, addend: 0x0, symName: __ZNSt3__15tupleIJRKZN15ChessBoardPrintC1ER10ChessBoardEUlRKNS_6vectorINS4_INS_10unique_ptrINS2_5PieceENS_14default_deleteIS6_EEEENS_9allocatorIS9_EEEENSA_ISC_EEEEE_EEC1B7v160006INS_4_AndELi0EEESJ_, symObjAddr: 0x110B0, symBinAddr: 0x1000135F8, symSize: 0x34 }
  - { offsetInCU: 0x2A67C, offset: 0x2A67C, size: 0x8, addend: 0x0, symName: __ZNSt3__15tupleIJRKZN15ChessBoardPrintC1ER10ChessBoardEUlRKNS_6vectorINS4_INS_10unique_ptrINS2_5PieceENS_14default_deleteIS6_EEEENS_9allocatorIS9_EEEENSA_ISC_EEEEE_EEC2B7v160006INS_4_AndELi0EEESJ_, symObjAddr: 0x110E4, symBinAddr: 0x10001362C, symSize: 0x34 }
  - { offsetInCU: 0x2A6C4, offset: 0x2A6C4, size: 0x8, addend: 0x0, symName: __ZNSt3__112__tuple_implINS_15__tuple_indicesIJLm0EEEEJRKZN15ChessBoardPrintC1ER10ChessBoardEUlRKNS_6vectorINS6_INS_10unique_ptrINS4_5PieceENS_14default_deleteIS8_EEEENS_9allocatorISB_EEEENSC_ISE_EEEEE_EEC1B7v160006IJLm0EEJSL_EJEJEJSL_EEENS1_IJXspT_EEEENS_13__tuple_typesIJDpT0_EEENS1_IJXspT1_EEEENSP_IJDpT2_EEEDpOT3_, symObjAddr: 0x11118, symBinAddr: 0x100013660, symSize: 0x34 }
  - { offsetInCU: 0x2A759, offset: 0x2A759, size: 0x8, addend: 0x0, symName: __ZNSt3__112__tuple_implINS_15__tuple_indicesIJLm0EEEEJRKZN15ChessBoardPrintC1ER10ChessBoardEUlRKNS_6vectorINS6_INS_10unique_ptrINS4_5PieceENS_14default_deleteIS8_EEEENS_9allocatorISB_EEEENSC_ISE_EEEEE_EEC2B7v160006IJLm0EEJSL_EJEJEJSL_EEENS1_IJXspT_EEEENS_13__tuple_typesIJDpT0_EEENS1_IJXspT1_EEEENSP_IJDpT2_EEEDpOT3_, symObjAddr: 0x1114C, symBinAddr: 0x100013694, symSize: 0x34 }
  - { offsetInCU: 0x2A7EE, offset: 0x2A7EE, size: 0x8, addend: 0x0, symName: __ZNSt3__112__tuple_leafILm0ERKZN15ChessBoardPrintC1ER10ChessBoardEUlRKNS_6vectorINS4_INS_10unique_ptrINS2_5PieceENS_14default_deleteIS6_EEEENS_9allocatorIS9_EEEENSA_ISC_EEEEE_Lb0EEC2B7v160006ISJ_vEEOT_, symObjAddr: 0x11180, symBinAddr: 0x1000136C8, symSize: 0x20 }
  - { offsetInCU: 0x2A831, offset: 0x2A831, size: 0x8, addend: 0x0, symName: __ZNSt3__117__compressed_pairIZN15ChessBoardPrintC1ER10ChessBoardEUlRKNS_6vectorINS4_INS_10unique_ptrINS2_5PieceENS_14default_deleteIS6_EEEENS_9allocatorIS9_EEEENSA_ISC_EEEEE_NSA_ISH_EEEC2B7v160006IJRKSH_EJOSI_EEENS_21piecewise_construct_tENS_5tupleIJDpT_EEENSP_IJDpT0_EEE, symObjAddr: 0x111A0, symBinAddr: 0x1000136E8, symSize: 0x54 }
  - { offsetInCU: 0x2A89B, offset: 0x2A89B, size: 0x8, addend: 0x0, symName: __ZNSt3__122__compressed_pair_elemIZN15ChessBoardPrintC1ER10ChessBoardEUlRKNS_6vectorINS4_INS_10unique_ptrINS2_5PieceENS_14default_deleteIS6_EEEENS_9allocatorIS9_EEEENSA_ISC_EEEEE_Li0ELb1EEC2B7v160006IJRKSH_EJLm0EEEENS_21piecewise_construct_tENS_5tupleIJDpT_EEENS_15__tuple_indicesIJXspT0_EEEE, symObjAddr: 0x111F4, symBinAddr: 0x10001373C, symSize: 0x38 }
  - { offsetInCU: 0x2A8FE, offset: 0x2A8FE, size: 0x8, addend: 0x0, symName: __ZNSt3__112__tuple_leafILm0ERKZN15ChessBoardPrintC1ER10ChessBoardEUlRKNS_6vectorINS4_INS_10unique_ptrINS2_5PieceENS_14default_deleteIS6_EEEENS_9allocatorIS9_EEEENSA_ISC_EEEEE_Lb0EE3getB7v160006Ev, symObjAddr: 0x11250, symBinAddr: 0x100013798, symSize: 0x18 }
  - { offsetInCU: 0x2A924, offset: 0x2A924, size: 0x8, addend: 0x0, symName: __ZNSt3__117__compressed_pairIPNS_10__function6__funcIZN15ChessBoardPrintC1ER10ChessBoardEUlRKNS_6vectorINS6_INS_10unique_ptrINS4_5PieceENS_14default_deleteIS8_EEEENS_9allocatorISB_EEEENSC_ISE_EEEEE_NSC_ISJ_EEFvSI_EEENS_22__allocator_destructorINSC_ISM_EEEEE5firstB7v160006Ev, symObjAddr: 0x11268, symBinAddr: 0x1000137B0, symSize: 0x24 }
  - { offsetInCU: 0x2A94A, offset: 0x2A94A, size: 0x8, addend: 0x0, symName: __ZNSt3__122__compressed_pair_elemIPNS_10__function6__funcIZN15ChessBoardPrintC1ER10ChessBoardEUlRKNS_6vectorINS6_INS_10unique_ptrINS4_5PieceENS_14default_deleteIS8_EEEENS_9allocatorISB_EEEENSC_ISE_EEEEE_NSC_ISJ_EEFvSI_EEELi0ELb0EE5__getB7v160006Ev, symObjAddr: 0x1128C, symBinAddr: 0x1000137D4, symSize: 0x14 }
  - { offsetInCU: 0x2A970, offset: 0x2A970, size: 0x8, addend: 0x0, symName: __ZNSt3__110unique_ptrINS_10__function6__funcIZN15ChessBoardPrintC1ER10ChessBoardEUlRKNS_6vectorINS6_INS0_INS4_5PieceENS_14default_deleteIS7_EEEENS_9allocatorISA_EEEENSB_ISD_EEEEE_NSB_ISI_EEFvSH_EEENS_22__allocator_destructorINSB_ISL_EEEEED2B7v160006Ev, symObjAddr: 0x112A0, symBinAddr: 0x1000137E8, symSize: 0x30 }
  - { offsetInCU: 0x2A99A, offset: 0x2A99A, size: 0x8, addend: 0x0, symName: __ZNSt3__110unique_ptrINS_10__function6__funcIZN15ChessBoardPrintC1ER10ChessBoardEUlRKNS_6vectorINS6_INS0_INS4_5PieceENS_14default_deleteIS7_EEEENS_9allocatorISA_EEEENSB_ISD_EEEEE_NSB_ISI_EEFvSH_EEENS_22__allocator_destructorINSB_ISL_EEEEE5resetB7v160006EPSL_, symObjAddr: 0x112D0, symBinAddr: 0x100013818, symSize: 0x78 }
  - { offsetInCU: 0x2A9DE, offset: 0x2A9DE, size: 0x8, addend: 0x0, symName: __ZNSt3__117__compressed_pairIPNS_10__function6__funcIZN15ChessBoardPrintC1ER10ChessBoardEUlRKNS_6vectorINS6_INS_10unique_ptrINS4_5PieceENS_14default_deleteIS8_EEEENS_9allocatorISB_EEEENSC_ISE_EEEEE_NSC_ISJ_EEFvSI_EEENS_22__allocator_destructorINSC_ISM_EEEEE6secondB7v160006Ev, symObjAddr: 0x11348, symBinAddr: 0x100013890, symSize: 0x28 }
  - { offsetInCU: 0x2AA04, offset: 0x2AA04, size: 0x8, addend: 0x0, symName: __ZNSt3__122__allocator_destructorINS_9allocatorINS_10__function6__funcIZN15ChessBoardPrintC1ER10ChessBoardEUlRKNS_6vectorINS7_INS_10unique_ptrINS5_5PieceENS_14default_deleteIS9_EEEENS1_ISC_EEEENS1_ISE_EEEEE_NS1_ISJ_EEFvSI_EEEEEEclB7v160006EPSM_, symObjAddr: 0x11370, symBinAddr: 0x1000138B8, symSize: 0x34 }
  - { offsetInCU: 0x2AA38, offset: 0x2AA38, size: 0x8, addend: 0x0, symName: __ZNSt3__122__compressed_pair_elemINS_22__allocator_destructorINS_9allocatorINS_10__function6__funcIZN15ChessBoardPrintC1ER10ChessBoardEUlRKNS_6vectorINS8_INS_10unique_ptrINS6_5PieceENS_14default_deleteISA_EEEENS2_ISD_EEEENS2_ISF_EEEEE_NS2_ISK_EEFvSJ_EEEEEEELi1ELb0EE5__getB7v160006Ev, symObjAddr: 0x113A4, symBinAddr: 0x1000138EC, symSize: 0x14 }
  - { offsetInCU: 0x2AA5E, offset: 0x2AA5E, size: 0x8, addend: 0x0, symName: __ZNSt3__116allocator_traitsINS_9allocatorINS_10__function6__funcIZN15ChessBoardPrintC1ER10ChessBoardEUlRKNS_6vectorINS7_INS_10unique_ptrINS5_5PieceENS_14default_deleteIS9_EEEENS1_ISC_EEEENS1_ISE_EEEEE_NS1_ISJ_EEFvSI_EEEEEE10deallocateB7v160006ERSN_PSM_m, symObjAddr: 0x113B8, symBinAddr: 0x100013900, symSize: 0x34 }
  - { offsetInCU: 0x2AAA0, offset: 0x2AAA0, size: 0x8, addend: 0x0, symName: __ZNSt3__19allocatorINS_10__function6__funcIZN15ChessBoardPrintC1ER10ChessBoardEUlRKNS_6vectorINS6_INS_10unique_ptrINS4_5PieceENS_14default_deleteIS8_EEEENS0_ISB_EEEENS0_ISD_EEEEE_NS0_ISI_EEFvSH_EEEE10deallocateB7v160006EPSL_m, symObjAddr: 0x113EC, symBinAddr: 0x100013934, symSize: 0x40 }
  - { offsetInCU: 0x2AAE2, offset: 0x2AAE2, size: 0x8, addend: 0x0, symName: __ZNSt3__110__function6__funcIZN15ChessBoardPrintC1ER10ChessBoardEUlRKNS_6vectorINS5_INS_10unique_ptrINS3_5PieceENS_14default_deleteIS7_EEEENS_9allocatorISA_EEEENSB_ISD_EEEEE_NSB_ISI_EEFvSH_EEC1B7v160006ERKSI_RKSJ_, symObjAddr: 0x1142C, symBinAddr: 0x100013974, symSize: 0x3C }
  - { offsetInCU: 0x2AB2A, offset: 0x2AB2A, size: 0x8, addend: 0x0, symName: __ZNSt3__110__function6__funcIZN15ChessBoardPrintC1ER10ChessBoardEUlRKNS_6vectorINS5_INS_10unique_ptrINS3_5PieceENS_14default_deleteIS7_EEEENS_9allocatorISA_EEEENSB_ISD_EEEEE_NSB_ISI_EEFvSH_EEC2B7v160006ERKSI_RKSJ_, symObjAddr: 0x11468, symBinAddr: 0x1000139B0, symSize: 0x88 }
  - { offsetInCU: 0x2AB72, offset: 0x2AB72, size: 0x8, addend: 0x0, symName: __ZNSt3__110__function12__alloc_funcIZN15ChessBoardPrintC1ER10ChessBoardEUlRKNS_6vectorINS5_INS_10unique_ptrINS3_5PieceENS_14default_deleteIS7_EEEENS_9allocatorISA_EEEENSB_ISD_EEEEE_NSB_ISI_EEFvSH_EEC1B7v160006ERKSI_RKSJ_, symObjAddr: 0x114F0, symBinAddr: 0x100013A38, symSize: 0x3C }
  - { offsetInCU: 0x2ABB8, offset: 0x2ABB8, size: 0x8, addend: 0x0, symName: __ZNSt3__110__function12__alloc_funcIZN15ChessBoardPrintC1ER10ChessBoardEUlRKNS_6vectorINS5_INS_10unique_ptrINS3_5PieceENS_14default_deleteIS7_EEEENS_9allocatorISA_EEEENSB_ISD_EEEEE_NSB_ISI_EEFvSH_EEC2B7v160006ERKSI_RKSJ_, symObjAddr: 0x1152C, symBinAddr: 0x100013A74, symSize: 0x5C }
  - { offsetInCU: 0x2ABFE, offset: 0x2ABFE, size: 0x8, addend: 0x0, symName: __ZNSt3__117__compressed_pairIZN15ChessBoardPrintC1ER10ChessBoardEUlRKNS_6vectorINS4_INS_10unique_ptrINS2_5PieceENS_14default_deleteIS6_EEEENS_9allocatorIS9_EEEENSA_ISC_EEEEE_NSA_ISH_EEEC1B7v160006IJRKSH_EJRKSI_EEENS_21piecewise_construct_tENS_5tupleIJDpT_EEENSQ_IJDpT0_EEE, symObjAddr: 0x115B4, symBinAddr: 0x100013AFC, symSize: 0x3C }
  - { offsetInCU: 0x2AC68, offset: 0x2AC68, size: 0x8, addend: 0x0, symName: __ZNSt3__15tupleIJRKNS_9allocatorIZN15ChessBoardPrintC1ER10ChessBoardEUlRKNS_6vectorINS5_INS_10unique_ptrINS3_5PieceENS_14default_deleteIS7_EEEENS1_ISA_EEEENS1_ISC_EEEEE_EEEEC1B7v160006INS_4_AndELi0EEESK_, symObjAddr: 0x115F0, symBinAddr: 0x100013B38, symSize: 0x34 }
  - { offsetInCU: 0x2ACB0, offset: 0x2ACB0, size: 0x8, addend: 0x0, symName: __ZNSt3__15tupleIJRKNS_9allocatorIZN15ChessBoardPrintC1ER10ChessBoardEUlRKNS_6vectorINS5_INS_10unique_ptrINS3_5PieceENS_14default_deleteIS7_EEEENS1_ISA_EEEENS1_ISC_EEEEE_EEEEC2B7v160006INS_4_AndELi0EEESK_, symObjAddr: 0x11624, symBinAddr: 0x100013B6C, symSize: 0x34 }
  - { offsetInCU: 0x2ACF8, offset: 0x2ACF8, size: 0x8, addend: 0x0, symName: __ZNSt3__112__tuple_implINS_15__tuple_indicesIJLm0EEEEJRKNS_9allocatorIZN15ChessBoardPrintC1ER10ChessBoardEUlRKNS_6vectorINS7_INS_10unique_ptrINS5_5PieceENS_14default_deleteIS9_EEEENS3_ISC_EEEENS3_ISE_EEEEE_EEEEC1B7v160006IJLm0EEJSM_EJEJEJSM_EEENS1_IJXspT_EEEENS_13__tuple_typesIJDpT0_EEENS1_IJXspT1_EEEENSQ_IJDpT2_EEEDpOT3_, symObjAddr: 0x11658, symBinAddr: 0x100013BA0, symSize: 0x34 }
  - { offsetInCU: 0x2AD8D, offset: 0x2AD8D, size: 0x8, addend: 0x0, symName: __ZNSt3__112__tuple_implINS_15__tuple_indicesIJLm0EEEEJRKNS_9allocatorIZN15ChessBoardPrintC1ER10ChessBoardEUlRKNS_6vectorINS7_INS_10unique_ptrINS5_5PieceENS_14default_deleteIS9_EEEENS3_ISC_EEEENS3_ISE_EEEEE_EEEEC2B7v160006IJLm0EEJSM_EJEJEJSM_EEENS1_IJXspT_EEEENS_13__tuple_typesIJDpT0_EEENS1_IJXspT1_EEEENSQ_IJDpT2_EEEDpOT3_, symObjAddr: 0x1168C, symBinAddr: 0x100013BD4, symSize: 0x34 }
  - { offsetInCU: 0x2AE22, offset: 0x2AE22, size: 0x8, addend: 0x0, symName: __ZNSt3__112__tuple_leafILm0ERKNS_9allocatorIZN15ChessBoardPrintC1ER10ChessBoardEUlRKNS_6vectorINS5_INS_10unique_ptrINS3_5PieceENS_14default_deleteIS7_EEEENS1_ISA_EEEENS1_ISC_EEEEE_EELb0EEC2B7v160006ISK_vEEOT_, symObjAddr: 0x116C0, symBinAddr: 0x100013C08, symSize: 0x20 }
  - { offsetInCU: 0x2AE65, offset: 0x2AE65, size: 0x8, addend: 0x0, symName: __ZNSt3__117__compressed_pairIZN15ChessBoardPrintC1ER10ChessBoardEUlRKNS_6vectorINS4_INS_10unique_ptrINS2_5PieceENS_14default_deleteIS6_EEEENS_9allocatorIS9_EEEENSA_ISC_EEEEE_NSA_ISH_EEEC2B7v160006IJRKSH_EJRKSI_EEENS_21piecewise_construct_tENS_5tupleIJDpT_EEENSQ_IJDpT0_EEE, symObjAddr: 0x116E0, symBinAddr: 0x100013C28, symSize: 0x54 }
  - { offsetInCU: 0x2AECF, offset: 0x2AECF, size: 0x8, addend: 0x0, symName: __ZNSt3__122__compressed_pair_elemINS_9allocatorIZN15ChessBoardPrintC1ER10ChessBoardEUlRKNS_6vectorINS5_INS_10unique_ptrINS3_5PieceENS_14default_deleteIS7_EEEENS1_ISA_EEEENS1_ISC_EEEEE_EELi1ELb1EEC2B7v160006IJRKSI_EJLm0EEEENS_21piecewise_construct_tENS_5tupleIJDpT_EEENS_15__tuple_indicesIJXspT0_EEEE, symObjAddr: 0x11734, symBinAddr: 0x100013C7C, symSize: 0x38 }
  - { offsetInCU: 0x2AF32, offset: 0x2AF32, size: 0x8, addend: 0x0, symName: __ZNSt3__112__tuple_leafILm0ERKNS_9allocatorIZN15ChessBoardPrintC1ER10ChessBoardEUlRKNS_6vectorINS5_INS_10unique_ptrINS3_5PieceENS_14default_deleteIS7_EEEENS1_ISA_EEEENS1_ISC_EEEEE_EELb0EE3getB7v160006Ev, symObjAddr: 0x11790, symBinAddr: 0x100013CD8, symSize: 0x18 }
  - { offsetInCU: 0x2AF58, offset: 0x2AF58, size: 0x8, addend: 0x0, symName: __ZNSt3__110__function12__alloc_funcIZN15ChessBoardPrintC1ER10ChessBoardEUlRKNS_6vectorINS5_INS_10unique_ptrINS3_5PieceENS_14default_deleteIS7_EEEENS_9allocatorISA_EEEENSB_ISD_EEEEE_NSB_ISI_EEFvSH_EE7destroyB7v160006Ev, symObjAddr: 0x117A8, symBinAddr: 0x100013CF0, symSize: 0x10 }
  - { offsetInCU: 0x2AF7E, offset: 0x2AF7E, size: 0x8, addend: 0x0, symName: __ZNSt3__110__function12__alloc_funcIZN15ChessBoardPrintC1ER10ChessBoardEUlRKNS_6vectorINS5_INS_10unique_ptrINS3_5PieceENS_14default_deleteIS7_EEEENS_9allocatorISA_EEEENSB_ISD_EEEEE_NSB_ISI_EEFvSH_EEclB7v160006ESH_, symObjAddr: 0x117B8, symBinAddr: 0x100013D00, symSize: 0x30 }
  - { offsetInCU: 0x2AFB2, offset: 0x2AFB2, size: 0x8, addend: 0x0, symName: __ZNSt3__128__invoke_void_return_wrapperIvLb1EE6__callIJRZN15ChessBoardPrintC1ER10ChessBoardEUlRKNS_6vectorINS6_INS_10unique_ptrINS4_5PieceENS_14default_deleteIS8_EEEENS_9allocatorISB_EEEENSC_ISE_EEEEE_SI_EEEvDpOT_, symObjAddr: 0x117E8, symBinAddr: 0x100013D30, symSize: 0x2C }
  - { offsetInCU: 0x2AFF5, offset: 0x2AFF5, size: 0x8, addend: 0x0, symName: __ZNSt3__117__compressed_pairIZN15ChessBoardPrintC1ER10ChessBoardEUlRKNS_6vectorINS4_INS_10unique_ptrINS2_5PieceENS_14default_deleteIS6_EEEENS_9allocatorIS9_EEEENSA_ISC_EEEEE_NSA_ISH_EEE5firstB7v160006Ev, symObjAddr: 0x11814, symBinAddr: 0x100013D5C, symSize: 0x24 }
  - { offsetInCU: 0x2B020, offset: 0x2B020, size: 0x8, addend: 0x0, symName: __ZZN15ChessBoardPrintC1ER10ChessBoardENKUlRKNSt3__16vectorINS3_INS2_10unique_ptrINS0_5PieceENS2_14default_deleteIS5_EEEENS2_9allocatorIS8_EEEENS9_ISB_EEEEE_clESF_, symObjAddr: 0x11864, symBinAddr: 0x100013DAC, symSize: 0x1D0 }
  - { offsetInCU: 0x2B094, offset: 0x2B094, size: 0x8, addend: 0x0, symName: __ZNKSt3__16vectorINS0_INS_10unique_ptrIN10ChessBoard5PieceENS_14default_deleteIS3_EEEENS_9allocatorIS6_EEEENS7_IS9_EEE2atEm, symObjAddr: 0x11A34, symBinAddr: 0x100013F7C, symSize: 0x68 }
  - { offsetInCU: 0x2B0CB, offset: 0x2B0CB, size: 0x8, addend: 0x0, symName: __ZNKSt3__16vectorINS_10unique_ptrIN10ChessBoard5PieceENS_14default_deleteIS3_EEEENS_9allocatorIS6_EEE2atEm, symObjAddr: 0x11A9C, symBinAddr: 0x100013FE4, symSize: 0x60 }
  - { offsetInCU: 0x2B102, offset: 0x2B102, size: 0x8, addend: 0x0, symName: __ZNKSt3__110unique_ptrIN10ChessBoard5PieceENS_14default_deleteIS2_EEEcvbB7v160006Ev, symObjAddr: 0x11AFC, symBinAddr: 0x100014044, symSize: 0x34 }
  - { offsetInCU: 0x2B128, offset: 0x2B128, size: 0x8, addend: 0x0, symName: __ZNKSt3__110unique_ptrIN10ChessBoard5PieceENS_14default_deleteIS2_EEEptB7v160006Ev, symObjAddr: 0x11B30, symBinAddr: 0x100014078, symSize: 0x28 }
  - { offsetInCU: 0x2B14E, offset: 0x2B14E, size: 0x8, addend: 0x0, symName: __ZNKSt3__16vectorINS0_INS_10unique_ptrIN10ChessBoard5PieceENS_14default_deleteIS3_EEEENS_9allocatorIS6_EEEENS7_IS9_EEE20__throw_out_of_rangeB7v160006Ev, symObjAddr: 0x11B58, symBinAddr: 0x1000140A0, symSize: 0x1C }
  - { offsetInCU: 0x2B174, offset: 0x2B174, size: 0x8, addend: 0x0, symName: __ZNSt12out_of_rangeC1B7v160006EPKc, symObjAddr: 0x11BD8, symBinAddr: 0x100014120, symSize: 0x34 }
  - { offsetInCU: 0x2B1AC, offset: 0x2B1AC, size: 0x8, addend: 0x0, symName: __ZNSt12out_of_rangeC2B7v160006EPKc, symObjAddr: 0x11C0C, symBinAddr: 0x100014154, symSize: 0x4C }
  - { offsetInCU: 0x2B1E4, offset: 0x2B1E4, size: 0x8, addend: 0x0, symName: __ZNKSt3__16vectorINS_10unique_ptrIN10ChessBoard5PieceENS_14default_deleteIS3_EEEENS_9allocatorIS6_EEE20__throw_out_of_rangeB7v160006Ev, symObjAddr: 0x11C58, symBinAddr: 0x1000141A0, symSize: 0x1C }
  - { offsetInCU: 0x2B20A, offset: 0x2B20A, size: 0x8, addend: 0x0, symName: __ZNKSt3__117__compressed_pairIPN10ChessBoard5PieceENS_14default_deleteIS2_EEE5firstB7v160006Ev, symObjAddr: 0x11C74, symBinAddr: 0x1000141BC, symSize: 0x24 }
  - { offsetInCU: 0x2B230, offset: 0x2B230, size: 0x8, addend: 0x0, symName: __ZNKSt3__122__compressed_pair_elemIPN10ChessBoard5PieceELi0ELb0EE5__getB7v160006Ev, symObjAddr: 0x11C98, symBinAddr: 0x1000141E0, symSize: 0x14 }
  - { offsetInCU: 0x2B256, offset: 0x2B256, size: 0x8, addend: 0x0, symName: __ZNSt3__122__compressed_pair_elemIZN15ChessBoardPrintC1ER10ChessBoardEUlRKNS_6vectorINS4_INS_10unique_ptrINS2_5PieceENS_14default_deleteIS6_EEEENS_9allocatorIS9_EEEENSA_ISC_EEEEE_Li0ELb1EE5__getB7v160006Ev, symObjAddr: 0x11CAC, symBinAddr: 0x1000141F4, symSize: 0x14 }
  - { offsetInCU: 0x2B27C, offset: 0x2B27C, size: 0x8, addend: 0x0, symName: __ZNSt3__110__function12__value_funcIFvRKNS_6vectorINS2_INS_10unique_ptrIN10ChessBoard5PieceENS_14default_deleteIS5_EEEENS_9allocatorIS8_EEEENS9_ISB_EEEEEE4swapB7v160006ERSH_, symObjAddr: 0x11CC0, symBinAddr: 0x100014208, symSize: 0x304 }
  - { offsetInCU: 0x2B2D5, offset: 0x2B2D5, size: 0x8, addend: 0x0, symName: __ZNSt3__110__function12__value_funcIFvRKNS_6vectorINS2_INS_10unique_ptrIN10ChessBoard5PieceENS_14default_deleteIS5_EEEENS_9allocatorIS8_EEEENS9_ISB_EEEEEE9__as_baseEPv, symObjAddr: 0x11FC4, symBinAddr: 0x10001450C, symSize: 0x14 }
  - { offsetInCU: 0x2B2F9, offset: 0x2B2F9, size: 0x8, addend: 0x0, symName: __ZNKSt3__112basic_stringIcNS_11char_traitsIcEENS_9allocatorIcEEEixB7v160006Em, symObjAddr: 0x12014, symBinAddr: 0x10001455C, symSize: 0x30 }
  - { offsetInCU: 0x2B32E, offset: 0x2B32E, size: 0x8, addend: 0x0, symName: __ZNSt3__112basic_stringIcNS_11char_traitsIcEENS_9allocatorIcEEEC1B7v160006Ev, symObjAddr: 0x12084, symBinAddr: 0x1000145CC, symSize: 0x2C }
  - { offsetInCU: 0x2B358, offset: 0x2B358, size: 0x8, addend: 0x0, symName: __ZNKSt3__18functionIFvRKN10ChessBoard5PieceERKNS_12basic_stringIcNS_11char_traitsIcEENS_9allocatorIcEEEESC_EEcvbB7v160006Ev, symObjAddr: 0x120B0, symBinAddr: 0x1000145F8, symSize: 0x28 }
  - { offsetInCU: 0x2B37E, offset: 0x2B37E, size: 0x8, addend: 0x0, symName: __ZNKSt3__18functionIFvRKN10ChessBoard5PieceERKNS_12basic_stringIcNS_11char_traitsIcEENS_9allocatorIcEEEESC_EEclES4_SC_SC_, symObjAddr: 0x120D8, symBinAddr: 0x100014620, symSize: 0x3C }
  - { offsetInCU: 0x2B3D3, offset: 0x2B3D3, size: 0x8, addend: 0x0, symName: __ZNKSt3__110unique_ptrIN10ChessBoard5PieceENS_14default_deleteIS2_EEEdeB7v160006Ev, symObjAddr: 0x12114, symBinAddr: 0x10001465C, symSize: 0x28 }
  - { offsetInCU: 0x2B3F9, offset: 0x2B3F9, size: 0x8, addend: 0x0, symName: __ZNKSt3__18functionIFvRKN10ChessBoard5PieceERKNS_12basic_stringIcNS_11char_traitsIcEENS_9allocatorIcEEEEEEcvbB7v160006Ev, symObjAddr: 0x1213C, symBinAddr: 0x100014684, symSize: 0x28 }
  - { offsetInCU: 0x2B41F, offset: 0x2B41F, size: 0x8, addend: 0x0, symName: __ZNKSt3__18functionIFvRKN10ChessBoard5PieceERKNS_12basic_stringIcNS_11char_traitsIcEENS_9allocatorIcEEEEEEclES4_SC_, symObjAddr: 0x12164, symBinAddr: 0x1000146AC, symSize: 0x34 }
  - { offsetInCU: 0x2B465, offset: 0x2B465, size: 0x8, addend: 0x0, symName: __ZNKSt3__110unique_ptrIN10ChessBoard5PieceENS_14default_deleteIS2_EEE3getB7v160006Ev, symObjAddr: 0x12198, symBinAddr: 0x1000146E0, symSize: 0x28 }
  - { offsetInCU: 0x2B48B, offset: 0x2B48B, size: 0x8, addend: 0x0, symName: __ZNKSt3__18functionIFvN10ChessBoard5ColorEEEcvbB7v160006Ev, symObjAddr: 0x121C0, symBinAddr: 0x100014708, symSize: 0x28 }
  - { offsetInCU: 0x2B4B1, offset: 0x2B4B1, size: 0x8, addend: 0x0, symName: __ZNKSt3__18functionIFvN10ChessBoard5ColorEEEclES2_, symObjAddr: 0x121E8, symBinAddr: 0x100014730, symSize: 0x30 }
  - { offsetInCU: 0x2B4E8, offset: 0x2B4E8, size: 0x8, addend: 0x0, symName: __ZNSt3__110unique_ptrIN10ChessBoard5PieceENS_14default_deleteIS2_EEEaSB7v160006EOS5_, symObjAddr: 0x12218, symBinAddr: 0x100014760, symSize: 0x50 }
  - { offsetInCU: 0x2B51C, offset: 0x2B51C, size: 0x8, addend: 0x0, symName: __ZNKSt3__18functionIFvRKNS_6vectorINS1_INS_10unique_ptrIN10ChessBoard5PieceENS_14default_deleteIS4_EEEENS_9allocatorIS7_EEEENS8_ISA_EEEEEEclESE_, symObjAddr: 0x12268, symBinAddr: 0x1000147B0, symSize: 0x2C }
  - { offsetInCU: 0x2B553, offset: 0x2B553, size: 0x8, addend: 0x0, symName: __ZNKSt3__18functionIFvRKNS_12basic_stringIcNS_11char_traitsIcEENS_9allocatorIcEEEEEEcvbB7v160006Ev, symObjAddr: 0x12294, symBinAddr: 0x1000147DC, symSize: 0x28 }
  - { offsetInCU: 0x2B579, offset: 0x2B579, size: 0x8, addend: 0x0, symName: __ZNKSt3__18functionIFvRKNS_12basic_stringIcNS_11char_traitsIcEENS_9allocatorIcEEEEEEclES8_, symObjAddr: 0x122BC, symBinAddr: 0x100014804, symSize: 0x2C }
  - { offsetInCU: 0x2B5B0, offset: 0x2B5B0, size: 0x8, addend: 0x0, symName: __ZNSt3__112basic_stringIcNS_11char_traitsIcEENS_9allocatorIcEEEC1B7v160006EOS5_, symObjAddr: 0x122E8, symBinAddr: 0x100014830, symSize: 0x34 }
  - { offsetInCU: 0x2B5E9, offset: 0x2B5E9, size: 0x8, addend: 0x0, symName: __ZNSt3__112basic_stringIcNS_11char_traitsIcEENS_9allocatorIcEEEC2B7v160006EOS5_, symObjAddr: 0x1231C, symBinAddr: 0x100014864, symSize: 0x84 }
  - { offsetInCU: 0x2B622, offset: 0x2B622, size: 0x8, addend: 0x0, symName: __ZNSt3__112basic_stringIcNS_11char_traitsIcEENS_9allocatorIcEEE14__default_initB7v160006Ev, symObjAddr: 0x123A0, symBinAddr: 0x1000148E8, symSize: 0x40 }
  - { offsetInCU: 0x2B648, offset: 0x2B648, size: 0x8, addend: 0x0, symName: __ZNSt3__117__compressed_pairINS_12basic_stringIcNS_11char_traitsIcEENS_9allocatorIcEEE5__repES5_E5firstB7v160006Ev, symObjAddr: 0x123F4, symBinAddr: 0x10001493C, symSize: 0x24 }
  - { offsetInCU: 0x2B66E, offset: 0x2B66E, size: 0x8, addend: 0x0, symName: __ZNSt3__122__compressed_pair_elemINS_12basic_stringIcNS_11char_traitsIcEENS_9allocatorIcEEE5__repELi0ELb0EE5__getB7v160006Ev, symObjAddr: 0x12418, symBinAddr: 0x100014960, symSize: 0x14 }
  - { offsetInCU: 0x2B694, offset: 0x2B694, size: 0x8, addend: 0x0, symName: __ZNSt3__112basic_stringIcNS_11char_traitsIcEENS_9allocatorIcEEEC2B7v160006Ev, symObjAddr: 0x1242C, symBinAddr: 0x100014974, symSize: 0x4C }
  - { offsetInCU: 0x2B6BE, offset: 0x2B6BE, size: 0x8, addend: 0x0, symName: __ZNKSt3__110__function12__value_funcIFvRKN10ChessBoard5PieceERKNS_12basic_stringIcNS_11char_traitsIcEENS_9allocatorIcEEEESD_EEcvbB7v160006Ev, symObjAddr: 0x12478, symBinAddr: 0x1000149C0, symSize: 0x24 }
  - { offsetInCU: 0x2B6E4, offset: 0x2B6E4, size: 0x8, addend: 0x0, symName: __ZNKSt3__110__function12__value_funcIFvRKN10ChessBoard5PieceERKNS_12basic_stringIcNS_11char_traitsIcEENS_9allocatorIcEEEESD_EEclB7v160006ES5_SD_SD_, symObjAddr: 0x1249C, symBinAddr: 0x1000149E4, symSize: 0x68 }
  - { offsetInCU: 0x2B73C, offset: 0x2B73C, size: 0x8, addend: 0x0, symName: __ZNSt3__117bad_function_callC1Ev, symObjAddr: 0x1253C, symBinAddr: 0x100014A84, symSize: 0x2C }
  - { offsetInCU: 0x2B768, offset: 0x2B768, size: 0x8, addend: 0x0, symName: __ZNSt3__117bad_function_callD1Ev, symObjAddr: 0x12568, symBinAddr: 0x100014AB0, symSize: 0x2C }
  - { offsetInCU: 0x2B792, offset: 0x2B792, size: 0x8, addend: 0x0, symName: __ZNSt3__117bad_function_callC2Ev, symObjAddr: 0x12594, symBinAddr: 0x100014ADC, symSize: 0x44 }
  - { offsetInCU: 0x2B7BE, offset: 0x2B7BE, size: 0x8, addend: 0x0, symName: __ZNSt9exceptionC2B7v160006Ev, symObjAddr: 0x125D8, symBinAddr: 0x100014B20, symSize: 0x24 }
  - { offsetInCU: 0x2B7E8, offset: 0x2B7E8, size: 0x8, addend: 0x0, symName: __ZNSt3__117bad_function_callD0Ev, symObjAddr: 0x125FC, symBinAddr: 0x100014B44, symSize: 0x30 }
  - { offsetInCU: 0x2B812, offset: 0x2B812, size: 0x8, addend: 0x0, symName: __ZNSt3__117bad_function_callD2Ev, symObjAddr: 0x1262C, symBinAddr: 0x100014B74, symSize: 0x2C }
  - { offsetInCU: 0x2B83C, offset: 0x2B83C, size: 0x8, addend: 0x0, symName: __ZNKSt3__110__function12__value_funcIFvRKN10ChessBoard5PieceERKNS_12basic_stringIcNS_11char_traitsIcEENS_9allocatorIcEEEEEEcvbB7v160006Ev, symObjAddr: 0x12658, symBinAddr: 0x100014BA0, symSize: 0x24 }
  - { offsetInCU: 0x2B862, offset: 0x2B862, size: 0x8, addend: 0x0, symName: __ZNKSt3__110__function12__value_funcIFvRKN10ChessBoard5PieceERKNS_12basic_stringIcNS_11char_traitsIcEENS_9allocatorIcEEEEEEclB7v160006ES5_SD_, symObjAddr: 0x1267C, symBinAddr: 0x100014BC4, symSize: 0x60 }
  - { offsetInCU: 0x2B8A6, offset: 0x2B8A6, size: 0x8, addend: 0x0, symName: __ZNKSt3__110__function12__value_funcIFvN10ChessBoard5ColorEEEcvbB7v160006Ev, symObjAddr: 0x126DC, symBinAddr: 0x100014C24, symSize: 0x24 }
  - { offsetInCU: 0x2B8CC, offset: 0x2B8CC, size: 0x8, addend: 0x0, symName: __ZNKSt3__110__function12__value_funcIFvN10ChessBoard5ColorEEEclB7v160006EOS3_, symObjAddr: 0x12700, symBinAddr: 0x100014C48, symSize: 0x58 }
  - { offsetInCU: 0x2B901, offset: 0x2B901, size: 0x8, addend: 0x0, symName: __ZNKSt3__110__function12__value_funcIFvRKNS_6vectorINS2_INS_10unique_ptrIN10ChessBoard5PieceENS_14default_deleteIS5_EEEENS_9allocatorIS8_EEEENS9_ISB_EEEEEEclB7v160006ESF_, symObjAddr: 0x12758, symBinAddr: 0x100014CA0, symSize: 0x58 }
  - { offsetInCU: 0x2B936, offset: 0x2B936, size: 0x8, addend: 0x0, symName: __ZNKSt3__110__function12__value_funcIFvRKNS_12basic_stringIcNS_11char_traitsIcEENS_9allocatorIcEEEEEEcvbB7v160006Ev, symObjAddr: 0x127B0, symBinAddr: 0x100014CF8, symSize: 0x24 }
  - { offsetInCU: 0x2B95C, offset: 0x2B95C, size: 0x8, addend: 0x0, symName: __ZNKSt3__110__function12__value_funcIFvRKNS_12basic_stringIcNS_11char_traitsIcEENS_9allocatorIcEEEEEEclB7v160006ES9_, symObjAddr: 0x127D4, symBinAddr: 0x100014D1C, symSize: 0x58 }
  - { offsetInCU: 0x2B991, offset: 0x2B991, size: 0x8, addend: 0x0, symName: __ZN10ChessBoardD2Ev, symObjAddr: 0x1282C, symBinAddr: 0x100014D74, symSize: 0x74 }
  - { offsetInCU: 0x2B9BD, offset: 0x2B9BD, size: 0x8, addend: 0x0, symName: __ZNSt3__112basic_stringIcNS_11char_traitsIcEENS_9allocatorIcEEEC2B7v160006IDnEEPKc, symObjAddr: 0x128A0, symBinAddr: 0x100014DE8, symSize: 0x60 }
  - { offsetInCU: 0x2B9FB, offset: 0x2B9FB, size: 0x8, addend: 0x0, symName: __ZNSt3__111char_traitsIcE6lengthEPKc, symObjAddr: 0x12900, symBinAddr: 0x100014E48, symSize: 0x34 }
  - { offsetInCU: 0x2BA1E, offset: 0x2BA1E, size: 0x8, addend: 0x0, symName: __ZN10ChessBoard4KingC1ENS_5ColorE, symObjAddr: 0x12958, symBinAddr: 0x100014EA0, symSize: 0x34 }
  - { offsetInCU: 0x2BA56, offset: 0x2BA56, size: 0x8, addend: 0x0, symName: __ZNSt3__110unique_ptrIN10ChessBoard4KingENS_14default_deleteIS2_EEEC1B7v160006ILb1EvEEPS2_, symObjAddr: 0x1298C, symBinAddr: 0x100014ED4, symSize: 0x34 }
  - { offsetInCU: 0x2BA99, offset: 0x2BA99, size: 0x8, addend: 0x0, symName: __ZN10ChessBoard4KingC2ENS_5ColorE, symObjAddr: 0x129C0, symBinAddr: 0x100014F08, symSize: 0x4C }
  - { offsetInCU: 0x2BAD1, offset: 0x2BAD1, size: 0x8, addend: 0x0, symName: __ZN10ChessBoard5PieceC2ENS_5ColorE, symObjAddr: 0x12A0C, symBinAddr: 0x100014F54, symSize: 0x30 }
  - { offsetInCU: 0x2BB09, offset: 0x2BB09, size: 0x8, addend: 0x0, symName: __ZN10ChessBoard4KingD1Ev, symObjAddr: 0x12A3C, symBinAddr: 0x100014F84, symSize: 0x2C }
  - { offsetInCU: 0x2BB35, offset: 0x2BB35, size: 0x8, addend: 0x0, symName: __ZN10ChessBoard4KingD0Ev, symObjAddr: 0x12A68, symBinAddr: 0x100014FB0, symSize: 0x30 }
  - { offsetInCU: 0x2BB61, offset: 0x2BB61, size: 0x8, addend: 0x0, symName: __ZNK10ChessBoard4King4typeEv, symObjAddr: 0x12A98, symBinAddr: 0x100014FE0, symSize: 0x74 }
  - { offsetInCU: 0x2BB87, offset: 0x2BB87, size: 0x8, addend: 0x0, symName: __ZNK10ChessBoard4King10valid_moveEiiii, symObjAddr: 0x12B0C, symBinAddr: 0x100015054, symSize: 0xC0 }
  - { offsetInCU: 0x2BC01, offset: 0x2BC01, size: 0x8, addend: 0x0, symName: __ZNK10ChessBoard4King9typeShortEv, symObjAddr: 0x12BCC, symBinAddr: 0x100015114, symSize: 0x64 }
  - { offsetInCU: 0x2BC27, offset: 0x2BC27, size: 0x8, addend: 0x0, symName: __ZN10ChessBoard5PieceD1Ev, symObjAddr: 0x12C30, symBinAddr: 0x100015178, symSize: 0x14 }
  - { offsetInCU: 0x2BC51, offset: 0x2BC51, size: 0x8, addend: 0x0, symName: __ZN10ChessBoard5PieceD0Ev, symObjAddr: 0x12C44, symBinAddr: 0x10001518C, symSize: 0xC }
  - { offsetInCU: 0x2BC7B, offset: 0x2BC7B, size: 0x8, addend: 0x0, symName: __ZN10ChessBoard4KingD2Ev, symObjAddr: 0x12C50, symBinAddr: 0x100015198, symSize: 0x2C }
  - { offsetInCU: 0x2BCA7, offset: 0x2BCA7, size: 0x8, addend: 0x0, symName: __ZN10ChessBoard5PieceD2Ev, symObjAddr: 0x12C7C, symBinAddr: 0x1000151C4, symSize: 0x14 }
  - { offsetInCU: 0x2BCD1, offset: 0x2BCD1, size: 0x8, addend: 0x0, symName: __ZNK10ChessBoard5Piece12color_stringEv, symObjAddr: 0x12CD0, symBinAddr: 0x100015218, symSize: 0x64 }
  - { offsetInCU: 0x2BCF7, offset: 0x2BCF7, size: 0x8, addend: 0x0, symName: __ZNSt3__110unique_ptrIN10ChessBoard4KingENS_14default_deleteIS2_EEEC2B7v160006ILb1EvEEPS2_, symObjAddr: 0x12D34, symBinAddr: 0x10001527C, symSize: 0x44 }
  - { offsetInCU: 0x2BD3A, offset: 0x2BD3A, size: 0x8, addend: 0x0, symName: __ZNSt3__117__compressed_pairIPN10ChessBoard4KingENS_14default_deleteIS2_EEEC1B7v160006IRS3_NS_16__value_init_tagEEEOT_OT0_, symObjAddr: 0x12D78, symBinAddr: 0x1000152C0, symSize: 0x3C }
  - { offsetInCU: 0x2BD92, offset: 0x2BD92, size: 0x8, addend: 0x0, symName: __ZNSt3__117__compressed_pairIPN10ChessBoard4KingENS_14default_deleteIS2_EEEC2B7v160006IRS3_NS_16__value_init_tagEEEOT_OT0_, symObjAddr: 0x12DB4, symBinAddr: 0x1000152FC, symSize: 0x40 }
  - { offsetInCU: 0x2BDEA, offset: 0x2BDEA, size: 0x8, addend: 0x0, symName: __ZNSt3__122__compressed_pair_elemIPN10ChessBoard4KingELi0ELb0EEC2B7v160006IRS3_vEEOT_, symObjAddr: 0x12DF4, symBinAddr: 0x10001533C, symSize: 0x24 }
  - { offsetInCU: 0x2BE2C, offset: 0x2BE2C, size: 0x8, addend: 0x0, symName: __ZNSt3__122__compressed_pair_elemINS_14default_deleteIN10ChessBoard4KingEEELi1ELb1EEC2B7v160006ENS_16__value_init_tagE, symObjAddr: 0x12E18, symBinAddr: 0x100015360, symSize: 0x14 }
  - { offsetInCU: 0x2BE60, offset: 0x2BE60, size: 0x8, addend: 0x0, symName: __ZNSt3__110unique_ptrIN10ChessBoard4KingENS_14default_deleteIS2_EEED2B7v160006Ev, symObjAddr: 0x12E2C, symBinAddr: 0x100015374, symSize: 0x30 }
  - { offsetInCU: 0x2BE8A, offset: 0x2BE8A, size: 0x8, addend: 0x0, symName: __ZNSt3__110unique_ptrIN10ChessBoard4KingENS_14default_deleteIS2_EEE5resetB7v160006EPS2_, symObjAddr: 0x12E5C, symBinAddr: 0x1000153A4, symSize: 0x78 }
  - { offsetInCU: 0x2BECE, offset: 0x2BECE, size: 0x8, addend: 0x0, symName: __ZNSt3__117__compressed_pairIPN10ChessBoard4KingENS_14default_deleteIS2_EEE5firstB7v160006Ev, symObjAddr: 0x12ED4, symBinAddr: 0x10001541C, symSize: 0x24 }
  - { offsetInCU: 0x2BEF4, offset: 0x2BEF4, size: 0x8, addend: 0x0, symName: __ZNSt3__117__compressed_pairIPN10ChessBoard4KingENS_14default_deleteIS2_EEE6secondB7v160006Ev, symObjAddr: 0x12EF8, symBinAddr: 0x100015440, symSize: 0x24 }
  - { offsetInCU: 0x2BF1A, offset: 0x2BF1A, size: 0x8, addend: 0x0, symName: __ZNKSt3__114default_deleteIN10ChessBoard4KingEEclB7v160006EPS2_, symObjAddr: 0x12F1C, symBinAddr: 0x100015464, symSize: 0x4C }
  - { offsetInCU: 0x2BF4E, offset: 0x2BF4E, size: 0x8, addend: 0x0, symName: __ZNSt3__122__compressed_pair_elemIPN10ChessBoard4KingELi0ELb0EE5__getB7v160006Ev, symObjAddr: 0x12F68, symBinAddr: 0x1000154B0, symSize: 0x14 }
  - { offsetInCU: 0x2BF74, offset: 0x2BF74, size: 0x8, addend: 0x0, symName: __ZNSt3__122__compressed_pair_elemINS_14default_deleteIN10ChessBoard4KingEEELi1ELb1EE5__getB7v160006Ev, symObjAddr: 0x12F7C, symBinAddr: 0x1000154C4, symSize: 0x14 }
  - { offsetInCU: 0x2BF9A, offset: 0x2BF9A, size: 0x8, addend: 0x0, symName: __ZNSt3__110unique_ptrIN10ChessBoard4KingENS_14default_deleteIS2_EEE7releaseB7v160006Ev, symObjAddr: 0x12F90, symBinAddr: 0x1000154D8, symSize: 0x44 }
  - { offsetInCU: 0x2BFCF, offset: 0x2BFCF, size: 0x8, addend: 0x0, symName: __ZNSt3__110unique_ptrIN10ChessBoard4KingENS_14default_deleteIS2_EEE11get_deleterB7v160006Ev, symObjAddr: 0x12FD4, symBinAddr: 0x10001551C, symSize: 0x24 }
  - { offsetInCU: 0x2BFFA, offset: 0x2BFFA, size: 0x8, addend: 0x0, symName: __ZNSt3__114default_deleteIN10ChessBoard5PieceEEC1B7v160006INS1_4KingEEERKNS0_IT_EEPNS_9enable_ifIXsr14is_convertibleIPS6_PS2_EE5valueEvE4typeE, symObjAddr: 0x12FF8, symBinAddr: 0x100015540, symSize: 0x3C }
  - { offsetInCU: 0x2C041, offset: 0x2C041, size: 0x8, addend: 0x0, symName: __ZNSt3__114default_deleteIN10ChessBoard5PieceEEC2B7v160006INS1_4KingEEERKNS0_IT_EEPNS_9enable_ifIXsr14is_convertibleIPS6_PS2_EE5valueEvE4typeE, symObjAddr: 0x13034, symBinAddr: 0x10001557C, symSize: 0x1C }
  - { offsetInCU: 0x2C088, offset: 0x2C088, size: 0x8, addend: 0x0, symName: __ZN10ChessBoard6KnightC1ENS_5ColorE, symObjAddr: 0x13050, symBinAddr: 0x100015598, symSize: 0x34 }
  - { offsetInCU: 0x2C0C0, offset: 0x2C0C0, size: 0x8, addend: 0x0, symName: __ZNSt3__110unique_ptrIN10ChessBoard6KnightENS_14default_deleteIS2_EEEC1B7v160006ILb1EvEEPS2_, symObjAddr: 0x13084, symBinAddr: 0x1000155CC, symSize: 0x34 }
  - { offsetInCU: 0x2C103, offset: 0x2C103, size: 0x8, addend: 0x0, symName: __ZN10ChessBoard6KnightC2ENS_5ColorE, symObjAddr: 0x130B8, symBinAddr: 0x100015600, symSize: 0x4C }
  - { offsetInCU: 0x2C13B, offset: 0x2C13B, size: 0x8, addend: 0x0, symName: __ZN10ChessBoard6KnightD1Ev, symObjAddr: 0x13104, symBinAddr: 0x10001564C, symSize: 0x2C }
  - { offsetInCU: 0x2C167, offset: 0x2C167, size: 0x8, addend: 0x0, symName: __ZN10ChessBoard6KnightD0Ev, symObjAddr: 0x13130, symBinAddr: 0x100015678, symSize: 0x30 }
  - { offsetInCU: 0x2C193, offset: 0x2C193, size: 0x8, addend: 0x0, symName: __ZNK10ChessBoard6Knight4typeEv, symObjAddr: 0x13160, symBinAddr: 0x1000156A8, symSize: 0x74 }
  - { offsetInCU: 0x2C1B9, offset: 0x2C1B9, size: 0x8, addend: 0x0, symName: __ZNK10ChessBoard6Knight10valid_moveEiiii, symObjAddr: 0x131D4, symBinAddr: 0x10001571C, symSize: 0x1D0 }
  - { offsetInCU: 0x2C242, offset: 0x2C242, size: 0x8, addend: 0x0, symName: __ZNK10ChessBoard6Knight9typeShortEv, symObjAddr: 0x133A4, symBinAddr: 0x1000158EC, symSize: 0x64 }
  - { offsetInCU: 0x2C268, offset: 0x2C268, size: 0x8, addend: 0x0, symName: __ZN10ChessBoard6KnightD2Ev, symObjAddr: 0x13408, symBinAddr: 0x100015950, symSize: 0x2C }
  - { offsetInCU: 0x2C294, offset: 0x2C294, size: 0x8, addend: 0x0, symName: __ZNSt3__110unique_ptrIN10ChessBoard6KnightENS_14default_deleteIS2_EEEC2B7v160006ILb1EvEEPS2_, symObjAddr: 0x13434, symBinAddr: 0x10001597C, symSize: 0x44 }
  - { offsetInCU: 0x2C2D7, offset: 0x2C2D7, size: 0x8, addend: 0x0, symName: __ZNSt3__117__compressed_pairIPN10ChessBoard6KnightENS_14default_deleteIS2_EEEC1B7v160006IRS3_NS_16__value_init_tagEEEOT_OT0_, symObjAddr: 0x13478, symBinAddr: 0x1000159C0, symSize: 0x3C }
  - { offsetInCU: 0x2C32F, offset: 0x2C32F, size: 0x8, addend: 0x0, symName: __ZNSt3__117__compressed_pairIPN10ChessBoard6KnightENS_14default_deleteIS2_EEEC2B7v160006IRS3_NS_16__value_init_tagEEEOT_OT0_, symObjAddr: 0x134B4, symBinAddr: 0x1000159FC, symSize: 0x40 }
  - { offsetInCU: 0x2C387, offset: 0x2C387, size: 0x8, addend: 0x0, symName: __ZNSt3__122__compressed_pair_elemIPN10ChessBoard6KnightELi0ELb0EEC2B7v160006IRS3_vEEOT_, symObjAddr: 0x134F4, symBinAddr: 0x100015A3C, symSize: 0x24 }
  - { offsetInCU: 0x2C3C9, offset: 0x2C3C9, size: 0x8, addend: 0x0, symName: __ZNSt3__122__compressed_pair_elemINS_14default_deleteIN10ChessBoard6KnightEEELi1ELb1EEC2B7v160006ENS_16__value_init_tagE, symObjAddr: 0x13518, symBinAddr: 0x100015A60, symSize: 0x14 }
  - { offsetInCU: 0x2C3FD, offset: 0x2C3FD, size: 0x8, addend: 0x0, symName: __ZNSt3__110unique_ptrIN10ChessBoard6KnightENS_14default_deleteIS2_EEED2B7v160006Ev, symObjAddr: 0x1352C, symBinAddr: 0x100015A74, symSize: 0x30 }
  - { offsetInCU: 0x2C427, offset: 0x2C427, size: 0x8, addend: 0x0, symName: __ZNSt3__110unique_ptrIN10ChessBoard6KnightENS_14default_deleteIS2_EEE5resetB7v160006EPS2_, symObjAddr: 0x1355C, symBinAddr: 0x100015AA4, symSize: 0x78 }
  - { offsetInCU: 0x2C46B, offset: 0x2C46B, size: 0x8, addend: 0x0, symName: __ZNSt3__117__compressed_pairIPN10ChessBoard6KnightENS_14default_deleteIS2_EEE5firstB7v160006Ev, symObjAddr: 0x135D4, symBinAddr: 0x100015B1C, symSize: 0x24 }
  - { offsetInCU: 0x2C491, offset: 0x2C491, size: 0x8, addend: 0x0, symName: __ZNSt3__117__compressed_pairIPN10ChessBoard6KnightENS_14default_deleteIS2_EEE6secondB7v160006Ev, symObjAddr: 0x135F8, symBinAddr: 0x100015B40, symSize: 0x24 }
  - { offsetInCU: 0x2C4B7, offset: 0x2C4B7, size: 0x8, addend: 0x0, symName: __ZNKSt3__114default_deleteIN10ChessBoard6KnightEEclB7v160006EPS2_, symObjAddr: 0x1361C, symBinAddr: 0x100015B64, symSize: 0x4C }
  - { offsetInCU: 0x2C4EB, offset: 0x2C4EB, size: 0x8, addend: 0x0, symName: __ZNSt3__122__compressed_pair_elemIPN10ChessBoard6KnightELi0ELb0EE5__getB7v160006Ev, symObjAddr: 0x13668, symBinAddr: 0x100015BB0, symSize: 0x14 }
  - { offsetInCU: 0x2C511, offset: 0x2C511, size: 0x8, addend: 0x0, symName: __ZNSt3__122__compressed_pair_elemINS_14default_deleteIN10ChessBoard6KnightEEELi1ELb1EE5__getB7v160006Ev, symObjAddr: 0x1367C, symBinAddr: 0x100015BC4, symSize: 0x14 }
  - { offsetInCU: 0x2C537, offset: 0x2C537, size: 0x8, addend: 0x0, symName: __ZNSt3__110unique_ptrIN10ChessBoard6KnightENS_14default_deleteIS2_EEE7releaseB7v160006Ev, symObjAddr: 0x13690, symBinAddr: 0x100015BD8, symSize: 0x44 }
  - { offsetInCU: 0x2C56C, offset: 0x2C56C, size: 0x8, addend: 0x0, symName: __ZNSt3__110unique_ptrIN10ChessBoard6KnightENS_14default_deleteIS2_EEE11get_deleterB7v160006Ev, symObjAddr: 0x136D4, symBinAddr: 0x100015C1C, symSize: 0x24 }
  - { offsetInCU: 0x2C592, offset: 0x2C592, size: 0x8, addend: 0x0, symName: __ZNSt3__114default_deleteIN10ChessBoard5PieceEEC1B7v160006INS1_6KnightEEERKNS0_IT_EEPNS_9enable_ifIXsr14is_convertibleIPS6_PS2_EE5valueEvE4typeE, symObjAddr: 0x136F8, symBinAddr: 0x100015C40, symSize: 0x3C }
  - { offsetInCU: 0x2C5D9, offset: 0x2C5D9, size: 0x8, addend: 0x0, symName: __ZNSt3__114default_deleteIN10ChessBoard5PieceEEC2B7v160006INS1_6KnightEEERKNS0_IT_EEPNS_9enable_ifIXsr14is_convertibleIPS6_PS2_EE5valueEvE4typeE, symObjAddr: 0x13734, symBinAddr: 0x100015C7C, symSize: 0x1C }
...
